
program.exe:     file format pei-x86-64


Disassembly of section .text:

0000000140001000 <__mingw_invalidParameterHandler>:
   140001000:	c3                   	ret
   140001001:	66 66 2e 0f 1f 84 00 	data16 cs nopw 0x0(%rax,%rax,1)
   140001008:	00 00 00 00 
   14000100c:	0f 1f 40 00          	nopl   0x0(%rax)

0000000140001010 <pre_c_init>:
   140001010:	48 83 ec 28          	sub    $0x28,%rsp
   140001014:	48 8b 05 f5 33 00 00 	mov    0x33f5(%rip),%rax        # 140004410 <.refptr.__mingw_initltsdrot_force>
   14000101b:	31 c9                	xor    %ecx,%ecx
   14000101d:	c7 00 01 00 00 00    	movl   $0x1,(%rax)
   140001023:	48 8b 05 f6 33 00 00 	mov    0x33f6(%rip),%rax        # 140004420 <.refptr.__mingw_initltsdyn_force>
   14000102a:	c7 00 01 00 00 00    	movl   $0x1,(%rax)
   140001030:	48 8b 05 f9 33 00 00 	mov    0x33f9(%rip),%rax        # 140004430 <.refptr.__mingw_initltssuo_force>
   140001037:	c7 00 01 00 00 00    	movl   $0x1,(%rax)
   14000103d:	48 8b 05 5c 33 00 00 	mov    0x335c(%rip),%rax        # 1400043a0 <.refptr.__ImageBase>
   140001044:	66 81 38 4d 5a       	cmpw   $0x5a4d,(%rax)
   140001049:	75 0f                	jne    14000105a <pre_c_init+0x4a>
   14000104b:	48 63 50 3c          	movslq 0x3c(%rax),%rdx
   14000104f:	48 01 d0             	add    %rdx,%rax
   140001052:	81 38 50 45 00 00    	cmpl   $0x4550,(%rax)
   140001058:	74 66                	je     1400010c0 <pre_c_init+0xb0>
   14000105a:	48 8b 05 9f 33 00 00 	mov    0x339f(%rip),%rax        # 140004400 <.refptr.__mingw_app_type>
   140001061:	89 0d a5 5f 00 00    	mov    %ecx,0x5fa5(%rip)        # 14000700c <managedapp>
   140001067:	8b 00                	mov    (%rax),%eax
   140001069:	85 c0                	test   %eax,%eax
   14000106b:	74 43                	je     1400010b0 <pre_c_init+0xa0>
   14000106d:	b9 02 00 00 00       	mov    $0x2,%ecx
   140001072:	e8 19 18 00 00       	call   140002890 <__set_app_type>
   140001077:	e8 84 17 00 00       	call   140002800 <__p__fmode>
   14000107c:	48 8b 15 5d 34 00 00 	mov    0x345d(%rip),%rdx        # 1400044e0 <.refptr._fmode>
   140001083:	8b 12                	mov    (%rdx),%edx
   140001085:	89 10                	mov    %edx,(%rax)
   140001087:	e8 6c 17 00 00       	call   1400027f8 <__p__commode>
   14000108c:	48 8b 15 2d 34 00 00 	mov    0x342d(%rip),%rdx        # 1400044c0 <.refptr._commode>
   140001093:	8b 12                	mov    (%rdx),%edx
   140001095:	89 10                	mov    %edx,(%rax)
   140001097:	e8 b4 04 00 00       	call   140001550 <_setargv>
   14000109c:	48 8b 05 dd 32 00 00 	mov    0x32dd(%rip),%rax        # 140004380 <.refptr._MINGW_INSTALL_DEBUG_MATHERR>
   1400010a3:	83 38 01             	cmpl   $0x1,(%rax)
   1400010a6:	74 50                	je     1400010f8 <pre_c_init+0xe8>
   1400010a8:	31 c0                	xor    %eax,%eax
   1400010aa:	48 83 c4 28          	add    $0x28,%rsp
   1400010ae:	c3                   	ret
   1400010af:	90                   	nop
   1400010b0:	b9 01 00 00 00       	mov    $0x1,%ecx
   1400010b5:	e8 d6 17 00 00       	call   140002890 <__set_app_type>
   1400010ba:	eb bb                	jmp    140001077 <pre_c_init+0x67>
   1400010bc:	0f 1f 40 00          	nopl   0x0(%rax)
   1400010c0:	0f b7 50 18          	movzwl 0x18(%rax),%edx
   1400010c4:	66 81 fa 0b 01       	cmp    $0x10b,%dx
   1400010c9:	74 45                	je     140001110 <pre_c_init+0x100>
   1400010cb:	66 81 fa 0b 02       	cmp    $0x20b,%dx
   1400010d0:	75 88                	jne    14000105a <pre_c_init+0x4a>
   1400010d2:	83 b8 84 00 00 00 0e 	cmpl   $0xe,0x84(%rax)
   1400010d9:	0f 86 7b ff ff ff    	jbe    14000105a <pre_c_init+0x4a>
   1400010df:	8b 90 f8 00 00 00    	mov    0xf8(%rax),%edx
   1400010e5:	31 c9                	xor    %ecx,%ecx
   1400010e7:	85 d2                	test   %edx,%edx
   1400010e9:	0f 95 c1             	setne  %cl
   1400010ec:	e9 69 ff ff ff       	jmp    14000105a <pre_c_init+0x4a>
   1400010f1:	0f 1f 80 00 00 00 00 	nopl   0x0(%rax)
   1400010f8:	48 8b 0d 01 34 00 00 	mov    0x3401(%rip),%rcx        # 140004500 <.refptr._matherr>
   1400010ff:	e8 bc 0b 00 00       	call   140001cc0 <__mingw_setusermatherr>
   140001104:	31 c0                	xor    %eax,%eax
   140001106:	48 83 c4 28          	add    $0x28,%rsp
   14000110a:	c3                   	ret
   14000110b:	0f 1f 44 00 00       	nopl   0x0(%rax,%rax,1)
   140001110:	83 78 74 0e          	cmpl   $0xe,0x74(%rax)
   140001114:	0f 86 40 ff ff ff    	jbe    14000105a <pre_c_init+0x4a>
   14000111a:	44 8b 80 e8 00 00 00 	mov    0xe8(%rax),%r8d
   140001121:	31 c9                	xor    %ecx,%ecx
   140001123:	45 85 c0             	test   %r8d,%r8d
   140001126:	0f 95 c1             	setne  %cl
   140001129:	e9 2c ff ff ff       	jmp    14000105a <pre_c_init+0x4a>
   14000112e:	66 90                	xchg   %ax,%ax

0000000140001130 <pre_cpp_init>:
   140001130:	48 83 ec 38          	sub    $0x38,%rsp
   140001134:	48 8b 05 d5 33 00 00 	mov    0x33d5(%rip),%rax        # 140004510 <.refptr._newmode>
   14000113b:	4c 8d 05 d6 5e 00 00 	lea    0x5ed6(%rip),%r8        # 140007018 <envp>
   140001142:	48 8d 15 d7 5e 00 00 	lea    0x5ed7(%rip),%rdx        # 140007020 <argv>
   140001149:	48 8d 0d d8 5e 00 00 	lea    0x5ed8(%rip),%rcx        # 140007028 <argc>
   140001150:	8b 00                	mov    (%rax),%eax
   140001152:	89 05 ac 5e 00 00    	mov    %eax,0x5eac(%rip)        # 140007004 <startinfo>
   140001158:	48 8b 05 71 33 00 00 	mov    0x3371(%rip),%rax        # 1400044d0 <.refptr._dowildcard>
   14000115f:	44 8b 08             	mov    (%rax),%r9d
   140001162:	48 8d 05 9b 5e 00 00 	lea    0x5e9b(%rip),%rax        # 140007004 <startinfo>
   140001169:	48 89 44 24 20       	mov    %rax,0x20(%rsp)
   14000116e:	e8 3d 14 00 00       	call   1400025b0 <__getmainargs>
   140001173:	90                   	nop
   140001174:	48 83 c4 38          	add    $0x38,%rsp
   140001178:	c3                   	ret
   140001179:	0f 1f 80 00 00 00 00 	nopl   0x0(%rax)

0000000140001180 <__tmainCRTStartup>:
   140001180:	41 54                	push   %r12
   140001182:	55                   	push   %rbp
   140001183:	57                   	push   %rdi
   140001184:	56                   	push   %rsi
   140001185:	53                   	push   %rbx
   140001186:	48 83 ec 20          	sub    $0x20,%rsp
   14000118a:	48 8b 1d cf 32 00 00 	mov    0x32cf(%rip),%rbx        # 140004460 <.refptr.__native_startup_lock>
   140001191:	48 8b 2d 30 71 00 00 	mov    0x7130(%rip),%rbp        # 1400082c8 <__imp_Sleep>
   140001198:	31 ff                	xor    %edi,%edi
   14000119a:	65 48 8b 04 25 30 00 	mov    %gs:0x30,%rax
   1400011a1:	00 00 
   1400011a3:	48 8b 70 08          	mov    0x8(%rax),%rsi
   1400011a7:	eb 17                	jmp    1400011c0 <__tmainCRTStartup+0x40>
   1400011a9:	0f 1f 80 00 00 00 00 	nopl   0x0(%rax)
   1400011b0:	48 39 c6             	cmp    %rax,%rsi
   1400011b3:	0f 84 67 01 00 00    	je     140001320 <__tmainCRTStartup+0x1a0>
   1400011b9:	b9 e8 03 00 00       	mov    $0x3e8,%ecx
   1400011be:	ff d5                	call   *%rbp
   1400011c0:	48 89 f8             	mov    %rdi,%rax
   1400011c3:	f0 48 0f b1 33       	lock cmpxchg %rsi,(%rbx)
   1400011c8:	48 85 c0             	test   %rax,%rax
   1400011cb:	75 e3                	jne    1400011b0 <__tmainCRTStartup+0x30>
   1400011cd:	48 8b 35 9c 32 00 00 	mov    0x329c(%rip),%rsi        # 140004470 <.refptr.__native_startup_state>
   1400011d4:	31 ff                	xor    %edi,%edi
   1400011d6:	8b 06                	mov    (%rsi),%eax
   1400011d8:	83 f8 01             	cmp    $0x1,%eax
   1400011db:	0f 84 56 01 00 00    	je     140001337 <__tmainCRTStartup+0x1b7>
   1400011e1:	8b 06                	mov    (%rsi),%eax
   1400011e3:	85 c0                	test   %eax,%eax
   1400011e5:	0f 84 b5 01 00 00    	je     1400013a0 <__tmainCRTStartup+0x220>
   1400011eb:	c7 05 13 5e 00 00 01 	movl   $0x1,0x5e13(%rip)        # 140007008 <has_cctor>
   1400011f2:	00 00 00 
   1400011f5:	8b 06                	mov    (%rsi),%eax
   1400011f7:	83 f8 01             	cmp    $0x1,%eax
   1400011fa:	0f 84 4c 01 00 00    	je     14000134c <__tmainCRTStartup+0x1cc>
   140001200:	85 ff                	test   %edi,%edi
   140001202:	0f 84 65 01 00 00    	je     14000136d <__tmainCRTStartup+0x1ed>
   140001208:	48 8b 05 c1 31 00 00 	mov    0x31c1(%rip),%rax        # 1400043d0 <.refptr.__dyn_tls_init_callback>
   14000120f:	48 8b 00             	mov    (%rax),%rax
   140001212:	48 85 c0             	test   %rax,%rax
   140001215:	74 0c                	je     140001223 <__tmainCRTStartup+0xa3>
   140001217:	45 31 c0             	xor    %r8d,%r8d
   14000121a:	ba 02 00 00 00       	mov    $0x2,%edx
   14000121f:	31 c9                	xor    %ecx,%ecx
   140001221:	ff d0                	call   *%rax
   140001223:	e8 f8 06 00 00       	call   140001920 <_pei386_runtime_relocator>
   140001228:	48 8b 0d c1 32 00 00 	mov    0x32c1(%rip),%rcx        # 1400044f0 <.refptr._gnu_exception_handler>
   14000122f:	ff 15 8b 70 00 00    	call   *0x708b(%rip)        # 1400082c0 <__imp_SetUnhandledExceptionFilter>
   140001235:	48 8b 15 14 32 00 00 	mov    0x3214(%rip),%rdx        # 140004450 <.refptr.__mingw_oldexcpt_handler>
   14000123c:	48 8d 0d bd fd ff ff 	lea    -0x243(%rip),%rcx        # 140001000 <__mingw_invalidParameterHandler>
   140001243:	48 89 02             	mov    %rax,(%rdx)
   140001246:	e8 4d 16 00 00       	call   140002898 <_set_invalid_parameter_handler>
   14000124b:	e8 e0 04 00 00       	call   140001730 <_fpreset>
   140001250:	8b 1d d2 5d 00 00    	mov    0x5dd2(%rip),%ebx        # 140007028 <argc>
   140001256:	8d 7b 01             	lea    0x1(%rbx),%edi
   140001259:	48 63 ff             	movslq %edi,%rdi
   14000125c:	48 c1 e7 03          	shl    $0x3,%rdi
   140001260:	48 89 f9             	mov    %rdi,%rcx
   140001263:	e8 90 16 00 00       	call   1400028f8 <malloc>
   140001268:	4c 8b 25 b1 5d 00 00 	mov    0x5db1(%rip),%r12        # 140007020 <argv>
   14000126f:	48 89 c5             	mov    %rax,%rbp
   140001272:	85 db                	test   %ebx,%ebx
   140001274:	0f 8e 46 01 00 00    	jle    1400013c0 <__tmainCRTStartup+0x240>
   14000127a:	48 83 ef 08          	sub    $0x8,%rdi
   14000127e:	31 db                	xor    %ebx,%ebx
   140001280:	49 8b 0c 1c          	mov    (%r12,%rbx,1),%rcx
   140001284:	e8 57 15 00 00       	call   1400027e0 <strlen>
   140001289:	48 8d 70 01          	lea    0x1(%rax),%rsi
   14000128d:	48 89 f1             	mov    %rsi,%rcx
   140001290:	e8 63 16 00 00       	call   1400028f8 <malloc>
   140001295:	49 89 f0             	mov    %rsi,%r8
   140001298:	48 89 44 1d 00       	mov    %rax,0x0(%rbp,%rbx,1)
   14000129d:	49 8b 14 1c          	mov    (%r12,%rbx,1),%rdx
   1400012a1:	48 89 c1             	mov    %rax,%rcx
   1400012a4:	48 83 c3 08          	add    $0x8,%rbx
   1400012a8:	e8 1b 16 00 00       	call   1400028c8 <memcpy>
   1400012ad:	48 39 df             	cmp    %rbx,%rdi
   1400012b0:	75 ce                	jne    140001280 <__tmainCRTStartup+0x100>
   1400012b2:	48 01 ef             	add    %rbp,%rdi
   1400012b5:	48 c7 07 00 00 00 00 	movq   $0x0,(%rdi)
   1400012bc:	48 89 2d 5d 5d 00 00 	mov    %rbp,0x5d5d(%rip)        # 140007020 <argv>
   1400012c3:	e8 68 02 00 00       	call   140001530 <__main>
   1400012c8:	48 8b 05 11 31 00 00 	mov    0x3111(%rip),%rax        # 1400043e0 <.refptr.__imp___initenv>
   1400012cf:	4c 8b 05 42 5d 00 00 	mov    0x5d42(%rip),%r8        # 140007018 <envp>
   1400012d6:	8b 0d 4c 5d 00 00    	mov    0x5d4c(%rip),%ecx        # 140007028 <argc>
   1400012dc:	48 8b 00             	mov    (%rax),%rax
   1400012df:	4c 89 00             	mov    %r8,(%rax)
   1400012e2:	48 8b 15 37 5d 00 00 	mov    0x5d37(%rip),%rdx        # 140007020 <argv>
   1400012e9:	e8 62 01 00 00       	call   140001450 <main>
   1400012ee:	8b 0d 18 5d 00 00    	mov    0x5d18(%rip),%ecx        # 14000700c <managedapp>
   1400012f4:	89 05 16 5d 00 00    	mov    %eax,0x5d16(%rip)        # 140007010 <mainret>
   1400012fa:	85 c9                	test   %ecx,%ecx
   1400012fc:	0f 84 c6 00 00 00    	je     1400013c8 <__tmainCRTStartup+0x248>
   140001302:	8b 15 00 5d 00 00    	mov    0x5d00(%rip),%edx        # 140007008 <has_cctor>
   140001308:	85 d2                	test   %edx,%edx
   14000130a:	74 74                	je     140001380 <__tmainCRTStartup+0x200>
   14000130c:	48 83 c4 20          	add    $0x20,%rsp
   140001310:	5b                   	pop    %rbx
   140001311:	5e                   	pop    %rsi
   140001312:	5f                   	pop    %rdi
   140001313:	5d                   	pop    %rbp
   140001314:	41 5c                	pop    %r12
   140001316:	c3                   	ret
   140001317:	66 0f 1f 84 00 00 00 	nopw   0x0(%rax,%rax,1)
   14000131e:	00 00 
   140001320:	48 8b 35 49 31 00 00 	mov    0x3149(%rip),%rsi        # 140004470 <.refptr.__native_startup_state>
   140001327:	bf 01 00 00 00       	mov    $0x1,%edi
   14000132c:	8b 06                	mov    (%rsi),%eax
   14000132e:	83 f8 01             	cmp    $0x1,%eax
   140001331:	0f 85 aa fe ff ff    	jne    1400011e1 <__tmainCRTStartup+0x61>
   140001337:	b9 1f 00 00 00       	mov    $0x1f,%ecx
   14000133c:	e8 8f 13 00 00       	call   1400026d0 <_amsg_exit>
   140001341:	8b 06                	mov    (%rsi),%eax
   140001343:	83 f8 01             	cmp    $0x1,%eax
   140001346:	0f 85 b4 fe ff ff    	jne    140001200 <__tmainCRTStartup+0x80>
   14000134c:	48 8b 15 3d 31 00 00 	mov    0x313d(%rip),%rdx        # 140004490 <.refptr.__xc_z>
   140001353:	48 8b 0d 26 31 00 00 	mov    0x3126(%rip),%rcx        # 140004480 <.refptr.__xc_a>
   14000135a:	e8 29 15 00 00       	call   140002888 <_initterm>
   14000135f:	c7 06 02 00 00 00    	movl   $0x2,(%rsi)
   140001365:	85 ff                	test   %edi,%edi
   140001367:	0f 85 9b fe ff ff    	jne    140001208 <__tmainCRTStartup+0x88>
   14000136d:	31 c0                	xor    %eax,%eax
   14000136f:	48 87 03             	xchg   %rax,(%rbx)
   140001372:	e9 91 fe ff ff       	jmp    140001208 <__tmainCRTStartup+0x88>
   140001377:	66 0f 1f 84 00 00 00 	nopw   0x0(%rax,%rax,1)
   14000137e:	00 00 
   140001380:	e8 c3 14 00 00       	call   140002848 <_cexit>
   140001385:	8b 05 85 5c 00 00    	mov    0x5c85(%rip),%eax        # 140007010 <mainret>
   14000138b:	48 83 c4 20          	add    $0x20,%rsp
   14000138f:	5b                   	pop    %rbx
   140001390:	5e                   	pop    %rsi
   140001391:	5f                   	pop    %rdi
   140001392:	5d                   	pop    %rbp
   140001393:	41 5c                	pop    %r12
   140001395:	c3                   	ret
   140001396:	66 2e 0f 1f 84 00 00 	cs nopw 0x0(%rax,%rax,1)
   14000139d:	00 00 00 
   1400013a0:	48 8b 15 09 31 00 00 	mov    0x3109(%rip),%rdx        # 1400044b0 <.refptr.__xi_z>
   1400013a7:	48 8b 0d f2 30 00 00 	mov    0x30f2(%rip),%rcx        # 1400044a0 <.refptr.__xi_a>
   1400013ae:	c7 06 01 00 00 00    	movl   $0x1,(%rsi)
   1400013b4:	e8 cf 14 00 00       	call   140002888 <_initterm>
   1400013b9:	e9 37 fe ff ff       	jmp    1400011f5 <__tmainCRTStartup+0x75>
   1400013be:	66 90                	xchg   %ax,%ax
   1400013c0:	48 89 c7             	mov    %rax,%rdi
   1400013c3:	e9 ed fe ff ff       	jmp    1400012b5 <__tmainCRTStartup+0x135>
   1400013c8:	89 c1                	mov    %eax,%ecx
   1400013ca:	e8 d9 14 00 00       	call   1400028a8 <exit>
   1400013cf:	90                   	nop

00000001400013d0 <WinMainCRTStartup>:
   1400013d0:	48 83 ec 28          	sub    $0x28,%rsp

00000001400013d4 <.l_startw>:
   1400013d4:	48 8b 05 25 30 00 00 	mov    0x3025(%rip),%rax        # 140004400 <.refptr.__mingw_app_type>
   1400013db:	c7 00 01 00 00 00    	movl   $0x1,(%rax)
   1400013e1:	e8 9a fd ff ff       	call   140001180 <__tmainCRTStartup>
   1400013e6:	90                   	nop

00000001400013e7 <.l_endw>:
   1400013e7:	90                   	nop
   1400013e8:	48 83 c4 28          	add    $0x28,%rsp
   1400013ec:	c3                   	ret
   1400013ed:	0f 1f 00             	nopl   (%rax)

00000001400013f0 <mainCRTStartup>:
   1400013f0:	48 83 ec 28          	sub    $0x28,%rsp

00000001400013f4 <.l_start>:
   1400013f4:	48 8b 05 05 30 00 00 	mov    0x3005(%rip),%rax        # 140004400 <.refptr.__mingw_app_type>
   1400013fb:	c7 00 00 00 00 00    	movl   $0x0,(%rax)
   140001401:	e8 7a fd ff ff       	call   140001180 <__tmainCRTStartup>
   140001406:	90                   	nop

0000000140001407 <.l_end>:
   140001407:	90                   	nop
   140001408:	48 83 c4 28          	add    $0x28,%rsp
   14000140c:	c3                   	ret
   14000140d:	0f 1f 00             	nopl   (%rax)

0000000140001410 <atexit>:
   140001410:	48 83 ec 28          	sub    $0x28,%rsp
   140001414:	e8 77 12 00 00       	call   140002690 <_onexit>
   140001419:	48 83 f8 01          	cmp    $0x1,%rax
   14000141d:	19 c0                	sbb    %eax,%eax
   14000141f:	48 83 c4 28          	add    $0x28,%rsp
   140001423:	c3                   	ret
   140001424:	90                   	nop
   140001425:	90                   	nop
   140001426:	90                   	nop
   140001427:	90                   	nop
   140001428:	90                   	nop
   140001429:	90                   	nop
   14000142a:	90                   	nop
   14000142b:	90                   	nop
   14000142c:	90                   	nop
   14000142d:	90                   	nop
   14000142e:	90                   	nop
   14000142f:	90                   	nop

0000000140001430 <__gcc_register_frame>:
   140001430:	48 8d 0d 09 00 00 00 	lea    0x9(%rip),%rcx        # 140001440 <__gcc_deregister_frame>
   140001437:	e9 d4 ff ff ff       	jmp    140001410 <atexit>
   14000143c:	0f 1f 40 00          	nopl   0x0(%rax)

0000000140001440 <__gcc_deregister_frame>:
   140001440:	c3                   	ret
   140001441:	90                   	nop
   140001442:	90                   	nop
   140001443:	90                   	nop
   140001444:	90                   	nop
   140001445:	90                   	nop
   140001446:	90                   	nop
   140001447:	90                   	nop
   140001448:	90                   	nop
   140001449:	90                   	nop
   14000144a:	90                   	nop
   14000144b:	90                   	nop
   14000144c:	90                   	nop
   14000144d:	90                   	nop
   14000144e:	90                   	nop
   14000144f:	90                   	nop

0000000140001450 <main>:
   140001450:	55                   	push   %rbp
   140001451:	48 89 e5             	mov    %rsp,%rbp
   140001454:	48 83 ec 20          	sub    $0x20,%rsp
   140001458:	e8 d3 00 00 00       	call   140001530 <__main>
   14000145d:	48 8d 05 9c 2b 00 00 	lea    0x2b9c(%rip),%rax        # 140004000 <.rdata>
   140001464:	48 89 c1             	mov    %rax,%rcx
   140001467:	e8 b4 13 00 00       	call   140002820 <puts>
   14000146c:	b8 00 00 00 00       	mov    $0x0,%eax
   140001471:	48 83 c4 20          	add    $0x20,%rsp
   140001475:	5d                   	pop    %rbp
   140001476:	c3                   	ret
   140001477:	90                   	nop
   140001478:	90                   	nop
   140001479:	90                   	nop
   14000147a:	90                   	nop
   14000147b:	90                   	nop
   14000147c:	90                   	nop
   14000147d:	90                   	nop
   14000147e:	90                   	nop
   14000147f:	90                   	nop

0000000140001480 <__do_global_dtors>:
   140001480:	48 83 ec 28          	sub    $0x28,%rsp
   140001484:	48 8b 05 75 1b 00 00 	mov    0x1b75(%rip),%rax        # 140003000 <__data_start__>
   14000148b:	48 8b 00             	mov    (%rax),%rax
   14000148e:	48 85 c0             	test   %rax,%rax
   140001491:	74 22                	je     1400014b5 <__do_global_dtors+0x35>
   140001493:	0f 1f 44 00 00       	nopl   0x0(%rax,%rax,1)
   140001498:	ff d0                	call   *%rax
   14000149a:	48 8b 05 5f 1b 00 00 	mov    0x1b5f(%rip),%rax        # 140003000 <__data_start__>
   1400014a1:	48 8d 50 08          	lea    0x8(%rax),%rdx
   1400014a5:	48 8b 40 08          	mov    0x8(%rax),%rax
   1400014a9:	48 89 15 50 1b 00 00 	mov    %rdx,0x1b50(%rip)        # 140003000 <__data_start__>
   1400014b0:	48 85 c0             	test   %rax,%rax
   1400014b3:	75 e3                	jne    140001498 <__do_global_dtors+0x18>
   1400014b5:	48 83 c4 28          	add    $0x28,%rsp
   1400014b9:	c3                   	ret
   1400014ba:	66 0f 1f 44 00 00    	nopw   0x0(%rax,%rax,1)

00000001400014c0 <__do_global_ctors>:
   1400014c0:	56                   	push   %rsi
   1400014c1:	53                   	push   %rbx
   1400014c2:	48 83 ec 28          	sub    $0x28,%rsp
   1400014c6:	48 8b 15 c3 2e 00 00 	mov    0x2ec3(%rip),%rdx        # 140004390 <.refptr.__CTOR_LIST__>
   1400014cd:	48 8b 02             	mov    (%rdx),%rax
   1400014d0:	89 c1                	mov    %eax,%ecx
   1400014d2:	83 f8 ff             	cmp    $0xffffffff,%eax
   1400014d5:	74 39                	je     140001510 <__do_global_ctors+0x50>
   1400014d7:	85 c9                	test   %ecx,%ecx
   1400014d9:	74 20                	je     1400014fb <__do_global_ctors+0x3b>
   1400014db:	89 c8                	mov    %ecx,%eax
   1400014dd:	83 e9 01             	sub    $0x1,%ecx
   1400014e0:	48 8d 1c c2          	lea    (%rdx,%rax,8),%rbx
   1400014e4:	48 29 c8             	sub    %rcx,%rax
   1400014e7:	48 8d 74 c2 f8       	lea    -0x8(%rdx,%rax,8),%rsi
   1400014ec:	0f 1f 40 00          	nopl   0x0(%rax)
   1400014f0:	ff 13                	call   *(%rbx)
   1400014f2:	48 83 eb 08          	sub    $0x8,%rbx
   1400014f6:	48 39 f3             	cmp    %rsi,%rbx
   1400014f9:	75 f5                	jne    1400014f0 <__do_global_ctors+0x30>
   1400014fb:	48 8d 0d 7e ff ff ff 	lea    -0x82(%rip),%rcx        # 140001480 <__do_global_dtors>
   140001502:	48 83 c4 28          	add    $0x28,%rsp
   140001506:	5b                   	pop    %rbx
   140001507:	5e                   	pop    %rsi
   140001508:	e9 03 ff ff ff       	jmp    140001410 <atexit>
   14000150d:	0f 1f 00             	nopl   (%rax)
   140001510:	31 c0                	xor    %eax,%eax
   140001512:	66 0f 1f 44 00 00    	nopw   0x0(%rax,%rax,1)
   140001518:	44 8d 40 01          	lea    0x1(%rax),%r8d
   14000151c:	89 c1                	mov    %eax,%ecx
   14000151e:	4a 83 3c c2 00       	cmpq   $0x0,(%rdx,%r8,8)
   140001523:	4c 89 c0             	mov    %r8,%rax
   140001526:	75 f0                	jne    140001518 <__do_global_ctors+0x58>
   140001528:	eb ad                	jmp    1400014d7 <__do_global_ctors+0x17>
   14000152a:	66 0f 1f 44 00 00    	nopw   0x0(%rax,%rax,1)

0000000140001530 <__main>:
   140001530:	8b 05 fa 5a 00 00    	mov    0x5afa(%rip),%eax        # 140007030 <initialized>
   140001536:	85 c0                	test   %eax,%eax
   140001538:	74 06                	je     140001540 <__main+0x10>
   14000153a:	c3                   	ret
   14000153b:	0f 1f 44 00 00       	nopl   0x0(%rax,%rax,1)
   140001540:	c7 05 e6 5a 00 00 01 	movl   $0x1,0x5ae6(%rip)        # 140007030 <initialized>
   140001547:	00 00 00 
   14000154a:	e9 71 ff ff ff       	jmp    1400014c0 <__do_global_ctors>
   14000154f:	90                   	nop

0000000140001550 <_setargv>:
   140001550:	31 c0                	xor    %eax,%eax
   140001552:	c3                   	ret
   140001553:	90                   	nop
   140001554:	90                   	nop
   140001555:	90                   	nop
   140001556:	90                   	nop
   140001557:	90                   	nop
   140001558:	90                   	nop
   140001559:	90                   	nop
   14000155a:	90                   	nop
   14000155b:	90                   	nop
   14000155c:	90                   	nop
   14000155d:	90                   	nop
   14000155e:	90                   	nop
   14000155f:	90                   	nop

0000000140001560 <__dyn_tls_dtor>:
   140001560:	48 83 ec 28          	sub    $0x28,%rsp
   140001564:	83 fa 03             	cmp    $0x3,%edx
   140001567:	74 17                	je     140001580 <__dyn_tls_dtor+0x20>
   140001569:	85 d2                	test   %edx,%edx
   14000156b:	74 13                	je     140001580 <__dyn_tls_dtor+0x20>
   14000156d:	b8 01 00 00 00       	mov    $0x1,%eax
   140001572:	48 83 c4 28          	add    $0x28,%rsp
   140001576:	c3                   	ret
   140001577:	66 0f 1f 84 00 00 00 	nopw   0x0(%rax,%rax,1)
   14000157e:	00 00 
   140001580:	e8 7b 0a 00 00       	call   140002000 <__mingw_TLScallback>
   140001585:	b8 01 00 00 00       	mov    $0x1,%eax
   14000158a:	48 83 c4 28          	add    $0x28,%rsp
   14000158e:	c3                   	ret
   14000158f:	90                   	nop

0000000140001590 <__dyn_tls_init>:
   140001590:	56                   	push   %rsi
   140001591:	53                   	push   %rbx
   140001592:	48 83 ec 28          	sub    $0x28,%rsp
   140001596:	48 8b 05 d3 2d 00 00 	mov    0x2dd3(%rip),%rax        # 140004370 <.refptr._CRT_MT>
   14000159d:	83 38 02             	cmpl   $0x2,(%rax)
   1400015a0:	74 06                	je     1400015a8 <__dyn_tls_init+0x18>
   1400015a2:	c7 00 02 00 00 00    	movl   $0x2,(%rax)
   1400015a8:	83 fa 02             	cmp    $0x2,%edx
   1400015ab:	74 13                	je     1400015c0 <__dyn_tls_init+0x30>
   1400015ad:	83 fa 01             	cmp    $0x1,%edx
   1400015b0:	74 4e                	je     140001600 <__dyn_tls_init+0x70>
   1400015b2:	b8 01 00 00 00       	mov    $0x1,%eax
   1400015b7:	48 83 c4 28          	add    $0x28,%rsp
   1400015bb:	5b                   	pop    %rbx
   1400015bc:	5e                   	pop    %rsi
   1400015bd:	c3                   	ret
   1400015be:	66 90                	xchg   %ax,%ax
   1400015c0:	48 8d 1d 91 7a 00 00 	lea    0x7a91(%rip),%rbx        # 140009058 <__xd_z>
   1400015c7:	48 8d 35 8a 7a 00 00 	lea    0x7a8a(%rip),%rsi        # 140009058 <__xd_z>
   1400015ce:	48 39 f3             	cmp    %rsi,%rbx
   1400015d1:	74 df                	je     1400015b2 <__dyn_tls_init+0x22>
   1400015d3:	0f 1f 44 00 00       	nopl   0x0(%rax,%rax,1)
   1400015d8:	48 8b 03             	mov    (%rbx),%rax
   1400015db:	48 85 c0             	test   %rax,%rax
   1400015de:	74 02                	je     1400015e2 <__dyn_tls_init+0x52>
   1400015e0:	ff d0                	call   *%rax
   1400015e2:	48 83 c3 08          	add    $0x8,%rbx
   1400015e6:	48 39 f3             	cmp    %rsi,%rbx
   1400015e9:	75 ed                	jne    1400015d8 <__dyn_tls_init+0x48>
   1400015eb:	b8 01 00 00 00       	mov    $0x1,%eax
   1400015f0:	48 83 c4 28          	add    $0x28,%rsp
   1400015f4:	5b                   	pop    %rbx
   1400015f5:	5e                   	pop    %rsi
   1400015f6:	c3                   	ret
   1400015f7:	66 0f 1f 84 00 00 00 	nopw   0x0(%rax,%rax,1)
   1400015fe:	00 00 
   140001600:	e8 fb 09 00 00       	call   140002000 <__mingw_TLScallback>
   140001605:	b8 01 00 00 00       	mov    $0x1,%eax
   14000160a:	48 83 c4 28          	add    $0x28,%rsp
   14000160e:	5b                   	pop    %rbx
   14000160f:	5e                   	pop    %rsi
   140001610:	c3                   	ret
   140001611:	66 66 2e 0f 1f 84 00 	data16 cs nopw 0x0(%rax,%rax,1)
   140001618:	00 00 00 00 
   14000161c:	0f 1f 40 00          	nopl   0x0(%rax)

0000000140001620 <__tlregdtor>:
   140001620:	31 c0                	xor    %eax,%eax
   140001622:	c3                   	ret
   140001623:	90                   	nop
   140001624:	90                   	nop
   140001625:	90                   	nop
   140001626:	90                   	nop
   140001627:	90                   	nop
   140001628:	90                   	nop
   140001629:	90                   	nop
   14000162a:	90                   	nop
   14000162b:	90                   	nop
   14000162c:	90                   	nop
   14000162d:	90                   	nop
   14000162e:	90                   	nop
   14000162f:	90                   	nop

0000000140001630 <_matherr>:
   140001630:	56                   	push   %rsi
   140001631:	53                   	push   %rbx
   140001632:	48 83 ec 78          	sub    $0x78,%rsp
   140001636:	0f 11 74 24 40       	movups %xmm6,0x40(%rsp)
   14000163b:	0f 11 7c 24 50       	movups %xmm7,0x50(%rsp)
   140001640:	44 0f 11 44 24 60    	movups %xmm8,0x60(%rsp)
   140001646:	83 39 06             	cmpl   $0x6,(%rcx)
   140001649:	0f 87 cd 00 00 00    	ja     14000171c <_matherr+0xec>
   14000164f:	8b 01                	mov    (%rcx),%eax
   140001651:	48 8d 15 4c 2b 00 00 	lea    0x2b4c(%rip),%rdx        # 1400041a4 <.rdata+0x124>
   140001658:	48 63 04 82          	movslq (%rdx,%rax,4),%rax
   14000165c:	48 01 d0             	add    %rdx,%rax
   14000165f:	ff e0                	jmp    *%rax
   140001661:	0f 1f 80 00 00 00 00 	nopl   0x0(%rax)
   140001668:	48 8d 1d 30 2a 00 00 	lea    0x2a30(%rip),%rbx        # 14000409f <.rdata+0x1f>
   14000166f:	f2 44 0f 10 41 20    	movsd  0x20(%rcx),%xmm8
   140001675:	f2 0f 10 79 18       	movsd  0x18(%rcx),%xmm7
   14000167a:	f2 0f 10 71 10       	movsd  0x10(%rcx),%xmm6
   14000167f:	48 8b 71 08          	mov    0x8(%rcx),%rsi
   140001683:	b9 02 00 00 00       	mov    $0x2,%ecx
   140001688:	e8 63 11 00 00       	call   1400027f0 <__acrt_iob_func>
   14000168d:	f2 44 0f 11 44 24 30 	movsd  %xmm8,0x30(%rsp)
   140001694:	49 89 d8             	mov    %rbx,%r8
   140001697:	48 8d 15 da 2a 00 00 	lea    0x2ada(%rip),%rdx        # 140004178 <.rdata+0xf8>
   14000169e:	f2 0f 11 7c 24 28    	movsd  %xmm7,0x28(%rsp)
   1400016a4:	48 89 c1             	mov    %rax,%rcx
   1400016a7:	49 89 f1             	mov    %rsi,%r9
   1400016aa:	f2 0f 11 74 24 20    	movsd  %xmm6,0x20(%rsp)
   1400016b0:	e8 ab 0e 00 00       	call   140002560 <fprintf>
   1400016b5:	90                   	nop
   1400016b6:	0f 10 74 24 40       	movups 0x40(%rsp),%xmm6
   1400016bb:	0f 10 7c 24 50       	movups 0x50(%rsp),%xmm7
   1400016c0:	31 c0                	xor    %eax,%eax
   1400016c2:	44 0f 10 44 24 60    	movups 0x60(%rsp),%xmm8
   1400016c8:	48 83 c4 78          	add    $0x78,%rsp
   1400016cc:	5b                   	pop    %rbx
   1400016cd:	5e                   	pop    %rsi
   1400016ce:	c3                   	ret
   1400016cf:	90                   	nop
   1400016d0:	48 8d 1d a9 29 00 00 	lea    0x29a9(%rip),%rbx        # 140004080 <.rdata>
   1400016d7:	eb 96                	jmp    14000166f <_matherr+0x3f>
   1400016d9:	0f 1f 80 00 00 00 00 	nopl   0x0(%rax)
   1400016e0:	48 8d 1d f9 29 00 00 	lea    0x29f9(%rip),%rbx        # 1400040e0 <.rdata+0x60>
   1400016e7:	eb 86                	jmp    14000166f <_matherr+0x3f>
   1400016e9:	0f 1f 80 00 00 00 00 	nopl   0x0(%rax)
   1400016f0:	48 8d 1d c9 29 00 00 	lea    0x29c9(%rip),%rbx        # 1400040c0 <.rdata+0x40>
   1400016f7:	e9 73 ff ff ff       	jmp    14000166f <_matherr+0x3f>
   1400016fc:	0f 1f 40 00          	nopl   0x0(%rax)
   140001700:	48 8d 1d 29 2a 00 00 	lea    0x2a29(%rip),%rbx        # 140004130 <.rdata+0xb0>
   140001707:	e9 63 ff ff ff       	jmp    14000166f <_matherr+0x3f>
   14000170c:	0f 1f 40 00          	nopl   0x0(%rax)
   140001710:	48 8d 1d f1 29 00 00 	lea    0x29f1(%rip),%rbx        # 140004108 <.rdata+0x88>
   140001717:	e9 53 ff ff ff       	jmp    14000166f <_matherr+0x3f>
   14000171c:	48 8d 1d 43 2a 00 00 	lea    0x2a43(%rip),%rbx        # 140004166 <.rdata+0xe6>
   140001723:	e9 47 ff ff ff       	jmp    14000166f <_matherr+0x3f>
   140001728:	90                   	nop
   140001729:	90                   	nop
   14000172a:	90                   	nop
   14000172b:	90                   	nop
   14000172c:	90                   	nop
   14000172d:	90                   	nop
   14000172e:	90                   	nop
   14000172f:	90                   	nop

0000000140001730 <_fpreset>:
   140001730:	db e3                	fninit
   140001732:	c3                   	ret
   140001733:	90                   	nop
   140001734:	90                   	nop
   140001735:	90                   	nop
   140001736:	90                   	nop
   140001737:	90                   	nop
   140001738:	90                   	nop
   140001739:	90                   	nop
   14000173a:	90                   	nop
   14000173b:	90                   	nop
   14000173c:	90                   	nop
   14000173d:	90                   	nop
   14000173e:	90                   	nop
   14000173f:	90                   	nop

0000000140001740 <__report_error>:
   140001740:	56                   	push   %rsi
   140001741:	53                   	push   %rbx
   140001742:	48 83 ec 38          	sub    $0x38,%rsp
   140001746:	48 89 cb             	mov    %rcx,%rbx
   140001749:	48 8d 44 24 58       	lea    0x58(%rsp),%rax
   14000174e:	b9 02 00 00 00       	mov    $0x2,%ecx
   140001753:	48 89 54 24 58       	mov    %rdx,0x58(%rsp)
   140001758:	4c 89 44 24 60       	mov    %r8,0x60(%rsp)
   14000175d:	4c 89 4c 24 68       	mov    %r9,0x68(%rsp)
   140001762:	48 89 44 24 28       	mov    %rax,0x28(%rsp)
   140001767:	e8 84 10 00 00       	call   1400027f0 <__acrt_iob_func>
   14000176c:	41 b8 1b 00 00 00    	mov    $0x1b,%r8d
   140001772:	ba 01 00 00 00       	mov    $0x1,%edx
   140001777:	48 8d 0d 42 2a 00 00 	lea    0x2a42(%rip),%rcx        # 1400041c0 <.rdata>
   14000177e:	49 89 c1             	mov    %rax,%r9
   140001781:	e8 92 10 00 00       	call   140002818 <fwrite>
   140001786:	48 8b 74 24 28       	mov    0x28(%rsp),%rsi
   14000178b:	b9 02 00 00 00       	mov    $0x2,%ecx
   140001790:	e8 5b 10 00 00       	call   1400027f0 <__acrt_iob_func>
   140001795:	48 89 da             	mov    %rbx,%rdx
   140001798:	48 89 c1             	mov    %rax,%rcx
   14000179b:	49 89 f0             	mov    %rsi,%r8
   14000179e:	e8 9d 0d 00 00       	call   140002540 <vfprintf>
   1400017a3:	e8 f8 10 00 00       	call   1400028a0 <abort>
   1400017a8:	90                   	nop
   1400017a9:	0f 1f 80 00 00 00 00 	nopl   0x0(%rax)

00000001400017b0 <mark_section_writable>:
   1400017b0:	57                   	push   %rdi
   1400017b1:	56                   	push   %rsi
   1400017b2:	53                   	push   %rbx
   1400017b3:	48 83 ec 50          	sub    $0x50,%rsp
   1400017b7:	48 63 35 d6 58 00 00 	movslq 0x58d6(%rip),%rsi        # 140007094 <maxSections>
   1400017be:	48 89 cb             	mov    %rcx,%rbx
   1400017c1:	85 f6                	test   %esi,%esi
   1400017c3:	0f 8e 17 01 00 00    	jle    1400018e0 <mark_section_writable+0x130>
   1400017c9:	48 8b 05 c8 58 00 00 	mov    0x58c8(%rip),%rax        # 140007098 <the_secs>
   1400017d0:	45 31 c9             	xor    %r9d,%r9d
   1400017d3:	48 83 c0 18          	add    $0x18,%rax
   1400017d7:	66 0f 1f 84 00 00 00 	nopw   0x0(%rax,%rax,1)
   1400017de:	00 00 
   1400017e0:	4c 8b 00             	mov    (%rax),%r8
   1400017e3:	4c 39 c3             	cmp    %r8,%rbx
   1400017e6:	72 13                	jb     1400017fb <mark_section_writable+0x4b>
   1400017e8:	48 8b 50 08          	mov    0x8(%rax),%rdx
   1400017ec:	8b 52 08             	mov    0x8(%rdx),%edx
   1400017ef:	49 01 d0             	add    %rdx,%r8
   1400017f2:	4c 39 c3             	cmp    %r8,%rbx
   1400017f5:	0f 82 8a 00 00 00    	jb     140001885 <mark_section_writable+0xd5>
   1400017fb:	41 83 c1 01          	add    $0x1,%r9d
   1400017ff:	48 83 c0 28          	add    $0x28,%rax
   140001803:	41 39 f1             	cmp    %esi,%r9d
   140001806:	75 d8                	jne    1400017e0 <mark_section_writable+0x30>
   140001808:	48 89 d9             	mov    %rbx,%rcx
   14000180b:	e8 10 0a 00 00       	call   140002220 <__mingw_GetSectionForAddress>
   140001810:	48 89 c7             	mov    %rax,%rdi
   140001813:	48 85 c0             	test   %rax,%rax
   140001816:	0f 84 e6 00 00 00    	je     140001902 <mark_section_writable+0x152>
   14000181c:	48 8b 05 75 58 00 00 	mov    0x5875(%rip),%rax        # 140007098 <the_secs>
   140001823:	48 8d 1c b6          	lea    (%rsi,%rsi,4),%rbx
   140001827:	48 c1 e3 03          	shl    $0x3,%rbx
   14000182b:	48 01 d8             	add    %rbx,%rax
   14000182e:	48 89 78 20          	mov    %rdi,0x20(%rax)
   140001832:	c7 00 00 00 00 00    	movl   $0x0,(%rax)
   140001838:	e8 23 0b 00 00       	call   140002360 <_GetPEImageBase>
   14000183d:	8b 57 0c             	mov    0xc(%rdi),%edx
   140001840:	41 b8 30 00 00 00    	mov    $0x30,%r8d
   140001846:	48 8d 0c 10          	lea    (%rax,%rdx,1),%rcx
   14000184a:	48 8b 05 47 58 00 00 	mov    0x5847(%rip),%rax        # 140007098 <the_secs>
   140001851:	48 8d 54 24 20       	lea    0x20(%rsp),%rdx
   140001856:	48 89 4c 18 18       	mov    %rcx,0x18(%rax,%rbx,1)
   14000185b:	ff 15 7f 6a 00 00    	call   *0x6a7f(%rip)        # 1400082e0 <__imp_VirtualQuery>
   140001861:	48 85 c0             	test   %rax,%rax
   140001864:	0f 84 7d 00 00 00    	je     1400018e7 <mark_section_writable+0x137>
   14000186a:	8b 44 24 44          	mov    0x44(%rsp),%eax
   14000186e:	8d 50 fc             	lea    -0x4(%rax),%edx
   140001871:	83 e2 fb             	and    $0xfffffffb,%edx
   140001874:	74 08                	je     14000187e <mark_section_writable+0xce>
   140001876:	8d 50 c0             	lea    -0x40(%rax),%edx
   140001879:	83 e2 bf             	and    $0xffffffbf,%edx
   14000187c:	75 12                	jne    140001890 <mark_section_writable+0xe0>
   14000187e:	83 05 0f 58 00 00 01 	addl   $0x1,0x580f(%rip)        # 140007094 <maxSections>
   140001885:	48 83 c4 50          	add    $0x50,%rsp
   140001889:	5b                   	pop    %rbx
   14000188a:	5e                   	pop    %rsi
   14000188b:	5f                   	pop    %rdi
   14000188c:	c3                   	ret
   14000188d:	0f 1f 00             	nopl   (%rax)
   140001890:	83 f8 02             	cmp    $0x2,%eax
   140001893:	48 8b 4c 24 20       	mov    0x20(%rsp),%rcx
   140001898:	48 8b 54 24 38       	mov    0x38(%rsp),%rdx
   14000189d:	41 b8 40 00 00 00    	mov    $0x40,%r8d
   1400018a3:	b8 04 00 00 00       	mov    $0x4,%eax
   1400018a8:	44 0f 44 c0          	cmove  %eax,%r8d
   1400018ac:	48 03 1d e5 57 00 00 	add    0x57e5(%rip),%rbx        # 140007098 <the_secs>
   1400018b3:	48 89 4b 08          	mov    %rcx,0x8(%rbx)
   1400018b7:	49 89 d9             	mov    %rbx,%r9
   1400018ba:	48 89 53 10          	mov    %rdx,0x10(%rbx)
   1400018be:	ff 15 14 6a 00 00    	call   *0x6a14(%rip)        # 1400082d8 <__imp_VirtualProtect>
   1400018c4:	85 c0                	test   %eax,%eax
   1400018c6:	75 b6                	jne    14000187e <mark_section_writable+0xce>
   1400018c8:	ff 15 da 69 00 00    	call   *0x69da(%rip)        # 1400082a8 <__imp_GetLastError>
   1400018ce:	48 8d 0d 63 29 00 00 	lea    0x2963(%rip),%rcx        # 140004238 <.rdata+0x78>
   1400018d5:	89 c2                	mov    %eax,%edx
   1400018d7:	e8 64 fe ff ff       	call   140001740 <__report_error>
   1400018dc:	0f 1f 40 00          	nopl   0x0(%rax)
   1400018e0:	31 f6                	xor    %esi,%esi
   1400018e2:	e9 21 ff ff ff       	jmp    140001808 <mark_section_writable+0x58>
   1400018e7:	48 8b 05 aa 57 00 00 	mov    0x57aa(%rip),%rax        # 140007098 <the_secs>
   1400018ee:	8b 57 08             	mov    0x8(%rdi),%edx
   1400018f1:	48 8d 0d 08 29 00 00 	lea    0x2908(%rip),%rcx        # 140004200 <.rdata+0x40>
   1400018f8:	4c 8b 44 18 18       	mov    0x18(%rax,%rbx,1),%r8
   1400018fd:	e8 3e fe ff ff       	call   140001740 <__report_error>
   140001902:	48 89 da             	mov    %rbx,%rdx
   140001905:	48 8d 0d d4 28 00 00 	lea    0x28d4(%rip),%rcx        # 1400041e0 <.rdata+0x20>
   14000190c:	e8 2f fe ff ff       	call   140001740 <__report_error>
   140001911:	90                   	nop
   140001912:	66 66 2e 0f 1f 84 00 	data16 cs nopw 0x0(%rax,%rax,1)
   140001919:	00 00 00 00 
   14000191d:	0f 1f 00             	nopl   (%rax)

0000000140001920 <_pei386_runtime_relocator>:
   140001920:	55                   	push   %rbp
   140001921:	41 57                	push   %r15
   140001923:	41 56                	push   %r14
   140001925:	41 55                	push   %r13
   140001927:	41 54                	push   %r12
   140001929:	57                   	push   %rdi
   14000192a:	56                   	push   %rsi
   14000192b:	53                   	push   %rbx
   14000192c:	48 83 ec 48          	sub    $0x48,%rsp
   140001930:	48 8d 6c 24 40       	lea    0x40(%rsp),%rbp
   140001935:	44 8b 25 54 57 00 00 	mov    0x5754(%rip),%r12d        # 140007090 <was_init.0>
   14000193c:	45 85 e4             	test   %r12d,%r12d
   14000193f:	74 17                	je     140001958 <_pei386_runtime_relocator+0x38>
   140001941:	48 8d 65 08          	lea    0x8(%rbp),%rsp
   140001945:	5b                   	pop    %rbx
   140001946:	5e                   	pop    %rsi
   140001947:	5f                   	pop    %rdi
   140001948:	41 5c                	pop    %r12
   14000194a:	41 5d                	pop    %r13
   14000194c:	41 5e                	pop    %r14
   14000194e:	41 5f                	pop    %r15
   140001950:	5d                   	pop    %rbp
   140001951:	c3                   	ret
   140001952:	66 0f 1f 44 00 00    	nopw   0x0(%rax,%rax,1)
   140001958:	c7 05 2e 57 00 00 01 	movl   $0x1,0x572e(%rip)        # 140007090 <was_init.0>
   14000195f:	00 00 00 
   140001962:	e8 39 09 00 00       	call   1400022a0 <__mingw_GetSectionCount>
   140001967:	48 98                	cltq
   140001969:	48 8d 04 80          	lea    (%rax,%rax,4),%rax
   14000196d:	48 8d 04 c5 0f 00 00 	lea    0xf(,%rax,8),%rax
   140001974:	00 
   140001975:	48 83 e0 f0          	and    $0xfffffffffffffff0,%rax
   140001979:	e8 82 0b 00 00       	call   140002500 <___chkstk_ms>
   14000197e:	4c 8b 2d 2b 2a 00 00 	mov    0x2a2b(%rip),%r13        # 1400043b0 <.refptr.__RUNTIME_PSEUDO_RELOC_LIST_END__>
   140001985:	48 8b 1d 34 2a 00 00 	mov    0x2a34(%rip),%rbx        # 1400043c0 <.refptr.__RUNTIME_PSEUDO_RELOC_LIST__>
   14000198c:	c7 05 fe 56 00 00 00 	movl   $0x0,0x56fe(%rip)        # 140007094 <maxSections>
   140001993:	00 00 00 
   140001996:	48 29 c4             	sub    %rax,%rsp
   140001999:	48 8d 44 24 30       	lea    0x30(%rsp),%rax
   14000199e:	48 89 05 f3 56 00 00 	mov    %rax,0x56f3(%rip)        # 140007098 <the_secs>
   1400019a5:	4c 89 e8             	mov    %r13,%rax
   1400019a8:	48 29 d8             	sub    %rbx,%rax
   1400019ab:	48 83 f8 07          	cmp    $0x7,%rax
   1400019af:	7e 90                	jle    140001941 <_pei386_runtime_relocator+0x21>
   1400019b1:	8b 13                	mov    (%rbx),%edx
   1400019b3:	48 83 f8 0b          	cmp    $0xb,%rax
   1400019b7:	0f 8f 03 01 00 00    	jg     140001ac0 <_pei386_runtime_relocator+0x1a0>
   1400019bd:	8b 03                	mov    (%rbx),%eax
   1400019bf:	85 c0                	test   %eax,%eax
   1400019c1:	0f 85 69 02 00 00    	jne    140001c30 <_pei386_runtime_relocator+0x310>
   1400019c7:	8b 43 04             	mov    0x4(%rbx),%eax
   1400019ca:	85 c0                	test   %eax,%eax
   1400019cc:	0f 85 5e 02 00 00    	jne    140001c30 <_pei386_runtime_relocator+0x310>
   1400019d2:	8b 53 08             	mov    0x8(%rbx),%edx
   1400019d5:	83 fa 01             	cmp    $0x1,%edx
   1400019d8:	0f 85 92 02 00 00    	jne    140001c70 <_pei386_runtime_relocator+0x350>
   1400019de:	48 83 c3 0c          	add    $0xc,%rbx
   1400019e2:	4c 39 eb             	cmp    %r13,%rbx
   1400019e5:	0f 83 56 ff ff ff    	jae    140001941 <_pei386_runtime_relocator+0x21>
   1400019eb:	4c 8b 35 ae 29 00 00 	mov    0x29ae(%rip),%r14        # 1400043a0 <.refptr.__ImageBase>
   1400019f2:	41 bf ff ff ff ff    	mov    $0xffffffff,%r15d
   1400019f8:	eb 65                	jmp    140001a5f <_pei386_runtime_relocator+0x13f>
   1400019fa:	66 0f 1f 44 00 00    	nopw   0x0(%rax,%rax,1)
   140001a00:	83 f9 08             	cmp    $0x8,%ecx
   140001a03:	0f 84 d7 00 00 00    	je     140001ae0 <_pei386_runtime_relocator+0x1c0>
   140001a09:	83 f9 10             	cmp    $0x10,%ecx
   140001a0c:	0f 85 50 02 00 00    	jne    140001c62 <_pei386_runtime_relocator+0x342>
   140001a12:	0f b7 37             	movzwl (%rdi),%esi
   140001a15:	81 e2 c0 00 00 00    	and    $0xc0,%edx
   140001a1b:	66 85 f6             	test   %si,%si
   140001a1e:	0f 89 cc 01 00 00    	jns    140001bf0 <_pei386_runtime_relocator+0x2d0>
   140001a24:	48 81 ce 00 00 ff ff 	or     $0xffffffffffff0000,%rsi
   140001a2b:	48 29 c6             	sub    %rax,%rsi
   140001a2e:	4c 01 ce             	add    %r9,%rsi
   140001a31:	85 d2                	test   %edx,%edx
   140001a33:	75 12                	jne    140001a47 <_pei386_runtime_relocator+0x127>
   140001a35:	48 81 fe 00 80 ff ff 	cmp    $0xffffffffffff8000,%rsi
   140001a3c:	7c 65                	jl     140001aa3 <_pei386_runtime_relocator+0x183>
   140001a3e:	48 81 fe ff ff 00 00 	cmp    $0xffff,%rsi
   140001a45:	7f 5c                	jg     140001aa3 <_pei386_runtime_relocator+0x183>
   140001a47:	48 89 f9             	mov    %rdi,%rcx
   140001a4a:	e8 61 fd ff ff       	call   1400017b0 <mark_section_writable>
   140001a4f:	66 89 37             	mov    %si,(%rdi)
   140001a52:	48 83 c3 0c          	add    $0xc,%rbx
   140001a56:	4c 39 eb             	cmp    %r13,%rbx
   140001a59:	0f 83 d1 00 00 00    	jae    140001b30 <_pei386_runtime_relocator+0x210>
   140001a5f:	8b 03                	mov    (%rbx),%eax
   140001a61:	8b 53 08             	mov    0x8(%rbx),%edx
   140001a64:	8b 7b 04             	mov    0x4(%rbx),%edi
   140001a67:	4c 01 f0             	add    %r14,%rax
   140001a6a:	0f b6 ca             	movzbl %dl,%ecx
   140001a6d:	4c 8b 08             	mov    (%rax),%r9
   140001a70:	4c 01 f7             	add    %r14,%rdi
   140001a73:	83 f9 20             	cmp    $0x20,%ecx
   140001a76:	0f 84 0c 01 00 00    	je     140001b88 <_pei386_runtime_relocator+0x268>
   140001a7c:	76 82                	jbe    140001a00 <_pei386_runtime_relocator+0xe0>
   140001a7e:	83 f9 40             	cmp    $0x40,%ecx
   140001a81:	0f 85 db 01 00 00    	jne    140001c62 <_pei386_runtime_relocator+0x342>
   140001a87:	48 8b 37             	mov    (%rdi),%rsi
   140001a8a:	89 d1                	mov    %edx,%ecx
   140001a8c:	48 29 c6             	sub    %rax,%rsi
   140001a8f:	4c 01 ce             	add    %r9,%rsi
   140001a92:	81 e1 c0 00 00 00    	and    $0xc0,%ecx
   140001a98:	0f 85 42 01 00 00    	jne    140001be0 <_pei386_runtime_relocator+0x2c0>
   140001a9e:	48 85 f6             	test   %rsi,%rsi
   140001aa1:	78 af                	js     140001a52 <_pei386_runtime_relocator+0x132>
   140001aa3:	48 89 74 24 20       	mov    %rsi,0x20(%rsp)
   140001aa8:	89 ca                	mov    %ecx,%edx
   140001aaa:	49 89 f8             	mov    %rdi,%r8
   140001aad:	48 8d 0d 14 28 00 00 	lea    0x2814(%rip),%rcx        # 1400042c8 <.rdata+0x108>
   140001ab4:	e8 87 fc ff ff       	call   140001740 <__report_error>
   140001ab9:	0f 1f 80 00 00 00 00 	nopl   0x0(%rax)
   140001ac0:	85 d2                	test   %edx,%edx
   140001ac2:	0f 85 68 01 00 00    	jne    140001c30 <_pei386_runtime_relocator+0x310>
   140001ac8:	8b 43 04             	mov    0x4(%rbx),%eax
   140001acb:	89 c2                	mov    %eax,%edx
   140001acd:	0b 53 08             	or     0x8(%rbx),%edx
   140001ad0:	0f 85 f4 fe ff ff    	jne    1400019ca <_pei386_runtime_relocator+0xaa>
   140001ad6:	48 83 c3 0c          	add    $0xc,%rbx
   140001ada:	e9 de fe ff ff       	jmp    1400019bd <_pei386_runtime_relocator+0x9d>
   140001adf:	90                   	nop
   140001ae0:	0f b6 37             	movzbl (%rdi),%esi
   140001ae3:	81 e2 c0 00 00 00    	and    $0xc0,%edx
   140001ae9:	40 84 f6             	test   %sil,%sil
   140001aec:	0f 89 26 01 00 00    	jns    140001c18 <_pei386_runtime_relocator+0x2f8>
   140001af2:	48 81 ce 00 ff ff ff 	or     $0xffffffffffffff00,%rsi
   140001af9:	48 29 c6             	sub    %rax,%rsi
   140001afc:	4c 01 ce             	add    %r9,%rsi
   140001aff:	85 d2                	test   %edx,%edx
   140001b01:	75 0f                	jne    140001b12 <_pei386_runtime_relocator+0x1f2>
   140001b03:	48 81 fe ff 00 00 00 	cmp    $0xff,%rsi
   140001b0a:	7f 97                	jg     140001aa3 <_pei386_runtime_relocator+0x183>
   140001b0c:	48 83 fe 80          	cmp    $0xffffffffffffff80,%rsi
   140001b10:	7c 91                	jl     140001aa3 <_pei386_runtime_relocator+0x183>
   140001b12:	48 89 f9             	mov    %rdi,%rcx
   140001b15:	48 83 c3 0c          	add    $0xc,%rbx
   140001b19:	e8 92 fc ff ff       	call   1400017b0 <mark_section_writable>
   140001b1e:	40 88 37             	mov    %sil,(%rdi)
   140001b21:	4c 39 eb             	cmp    %r13,%rbx
   140001b24:	0f 82 35 ff ff ff    	jb     140001a5f <_pei386_runtime_relocator+0x13f>
   140001b2a:	66 0f 1f 44 00 00    	nopw   0x0(%rax,%rax,1)
   140001b30:	8b 15 5e 55 00 00    	mov    0x555e(%rip),%edx        # 140007094 <maxSections>
   140001b36:	85 d2                	test   %edx,%edx
   140001b38:	0f 8e 03 fe ff ff    	jle    140001941 <_pei386_runtime_relocator+0x21>
   140001b3e:	48 8b 35 93 67 00 00 	mov    0x6793(%rip),%rsi        # 1400082d8 <__imp_VirtualProtect>
   140001b45:	31 db                	xor    %ebx,%ebx
   140001b47:	48 8d 7d fc          	lea    -0x4(%rbp),%rdi
   140001b4b:	0f 1f 44 00 00       	nopl   0x0(%rax,%rax,1)
   140001b50:	48 8b 05 41 55 00 00 	mov    0x5541(%rip),%rax        # 140007098 <the_secs>
   140001b57:	48 01 d8             	add    %rbx,%rax
   140001b5a:	44 8b 00             	mov    (%rax),%r8d
   140001b5d:	45 85 c0             	test   %r8d,%r8d
   140001b60:	74 0d                	je     140001b6f <_pei386_runtime_relocator+0x24f>
   140001b62:	48 8b 50 10          	mov    0x10(%rax),%rdx
   140001b66:	48 8b 48 08          	mov    0x8(%rax),%rcx
   140001b6a:	49 89 f9             	mov    %rdi,%r9
   140001b6d:	ff d6                	call   *%rsi
   140001b6f:	41 83 c4 01          	add    $0x1,%r12d
   140001b73:	48 83 c3 28          	add    $0x28,%rbx
   140001b77:	44 3b 25 16 55 00 00 	cmp    0x5516(%rip),%r12d        # 140007094 <maxSections>
   140001b7e:	7c d0                	jl     140001b50 <_pei386_runtime_relocator+0x230>
   140001b80:	e9 bc fd ff ff       	jmp    140001941 <_pei386_runtime_relocator+0x21>
   140001b85:	0f 1f 00             	nopl   (%rax)
   140001b88:	8b 37                	mov    (%rdi),%esi
   140001b8a:	81 e2 c0 00 00 00    	and    $0xc0,%edx
   140001b90:	85 f6                	test   %esi,%esi
   140001b92:	79 74                	jns    140001c08 <_pei386_runtime_relocator+0x2e8>
   140001b94:	49 bb 00 00 00 00 ff 	movabs $0xffffffff00000000,%r11
   140001b9b:	ff ff ff 
   140001b9e:	4c 09 de             	or     %r11,%rsi
   140001ba1:	48 29 c6             	sub    %rax,%rsi
   140001ba4:	4c 01 ce             	add    %r9,%rsi
   140001ba7:	85 d2                	test   %edx,%edx
   140001ba9:	75 1c                	jne    140001bc7 <_pei386_runtime_relocator+0x2a7>
   140001bab:	4c 39 fe             	cmp    %r15,%rsi
   140001bae:	0f 8f ef fe ff ff    	jg     140001aa3 <_pei386_runtime_relocator+0x183>
   140001bb4:	48 b8 ff ff ff 7f ff 	movabs $0xffffffff7fffffff,%rax
   140001bbb:	ff ff ff 
   140001bbe:	48 39 c6             	cmp    %rax,%rsi
   140001bc1:	0f 8e dc fe ff ff    	jle    140001aa3 <_pei386_runtime_relocator+0x183>
   140001bc7:	48 89 f9             	mov    %rdi,%rcx
   140001bca:	e8 e1 fb ff ff       	call   1400017b0 <mark_section_writable>
   140001bcf:	89 37                	mov    %esi,(%rdi)
   140001bd1:	e9 7c fe ff ff       	jmp    140001a52 <_pei386_runtime_relocator+0x132>
   140001bd6:	66 2e 0f 1f 84 00 00 	cs nopw 0x0(%rax,%rax,1)
   140001bdd:	00 00 00 
   140001be0:	48 89 f9             	mov    %rdi,%rcx
   140001be3:	e8 c8 fb ff ff       	call   1400017b0 <mark_section_writable>
   140001be8:	48 89 37             	mov    %rsi,(%rdi)
   140001beb:	e9 62 fe ff ff       	jmp    140001a52 <_pei386_runtime_relocator+0x132>
   140001bf0:	48 29 c6             	sub    %rax,%rsi
   140001bf3:	4c 01 ce             	add    %r9,%rsi
   140001bf6:	85 d2                	test   %edx,%edx
   140001bf8:	0f 84 37 fe ff ff    	je     140001a35 <_pei386_runtime_relocator+0x115>
   140001bfe:	e9 44 fe ff ff       	jmp    140001a47 <_pei386_runtime_relocator+0x127>
   140001c03:	0f 1f 44 00 00       	nopl   0x0(%rax,%rax,1)
   140001c08:	48 29 c6             	sub    %rax,%rsi
   140001c0b:	4c 01 ce             	add    %r9,%rsi
   140001c0e:	85 d2                	test   %edx,%edx
   140001c10:	74 99                	je     140001bab <_pei386_runtime_relocator+0x28b>
   140001c12:	eb b3                	jmp    140001bc7 <_pei386_runtime_relocator+0x2a7>
   140001c14:	0f 1f 40 00          	nopl   0x0(%rax)
   140001c18:	48 29 c6             	sub    %rax,%rsi
   140001c1b:	4c 01 ce             	add    %r9,%rsi
   140001c1e:	85 d2                	test   %edx,%edx
   140001c20:	0f 84 dd fe ff ff    	je     140001b03 <_pei386_runtime_relocator+0x1e3>
   140001c26:	e9 e7 fe ff ff       	jmp    140001b12 <_pei386_runtime_relocator+0x1f2>
   140001c2b:	0f 1f 44 00 00       	nopl   0x0(%rax,%rax,1)
   140001c30:	4c 39 eb             	cmp    %r13,%rbx
   140001c33:	0f 83 08 fd ff ff    	jae    140001941 <_pei386_runtime_relocator+0x21>
   140001c39:	4c 8b 35 60 27 00 00 	mov    0x2760(%rip),%r14        # 1400043a0 <.refptr.__ImageBase>
   140001c40:	8b 73 04             	mov    0x4(%rbx),%esi
   140001c43:	8b 3b                	mov    (%rbx),%edi
   140001c45:	48 83 c3 08          	add    $0x8,%rbx
   140001c49:	4c 01 f6             	add    %r14,%rsi
   140001c4c:	03 3e                	add    (%rsi),%edi
   140001c4e:	48 89 f1             	mov    %rsi,%rcx
   140001c51:	e8 5a fb ff ff       	call   1400017b0 <mark_section_writable>
   140001c56:	89 3e                	mov    %edi,(%rsi)
   140001c58:	4c 39 eb             	cmp    %r13,%rbx
   140001c5b:	72 e3                	jb     140001c40 <_pei386_runtime_relocator+0x320>
   140001c5d:	e9 ce fe ff ff       	jmp    140001b30 <_pei386_runtime_relocator+0x210>
   140001c62:	89 ca                	mov    %ecx,%edx
   140001c64:	48 8d 0d 2d 26 00 00 	lea    0x262d(%rip),%rcx        # 140004298 <.rdata+0xd8>
   140001c6b:	e8 d0 fa ff ff       	call   140001740 <__report_error>
   140001c70:	48 8d 0d e9 25 00 00 	lea    0x25e9(%rip),%rcx        # 140004260 <.rdata+0xa0>
   140001c77:	e8 c4 fa ff ff       	call   140001740 <__report_error>
   140001c7c:	90                   	nop
   140001c7d:	90                   	nop
   140001c7e:	90                   	nop
   140001c7f:	90                   	nop

0000000140001c80 <__mingw_raise_matherr>:
   140001c80:	48 83 ec 58          	sub    $0x58,%rsp
   140001c84:	48 8b 05 15 54 00 00 	mov    0x5415(%rip),%rax        # 1400070a0 <stUserMathErr>
   140001c8b:	66 0f 14 d3          	unpcklpd %xmm3,%xmm2
   140001c8f:	48 85 c0             	test   %rax,%rax
   140001c92:	74 25                	je     140001cb9 <__mingw_raise_matherr+0x39>
   140001c94:	f2 0f 10 84 24 80 00 	movsd  0x80(%rsp),%xmm0
   140001c9b:	00 00 
   140001c9d:	89 4c 24 20          	mov    %ecx,0x20(%rsp)
   140001ca1:	48 8d 4c 24 20       	lea    0x20(%rsp),%rcx
   140001ca6:	48 89 54 24 28       	mov    %rdx,0x28(%rsp)
   140001cab:	0f 11 54 24 30       	movups %xmm2,0x30(%rsp)
   140001cb0:	f2 0f 11 44 24 40    	movsd  %xmm0,0x40(%rsp)
   140001cb6:	ff d0                	call   *%rax
   140001cb8:	90                   	nop
   140001cb9:	48 83 c4 58          	add    $0x58,%rsp
   140001cbd:	c3                   	ret
   140001cbe:	66 90                	xchg   %ax,%ax

0000000140001cc0 <__mingw_setusermatherr>:
   140001cc0:	48 89 0d d9 53 00 00 	mov    %rcx,0x53d9(%rip)        # 1400070a0 <stUserMathErr>
   140001cc7:	e9 04 0c 00 00       	jmp    1400028d0 <__setusermatherr>
   140001ccc:	90                   	nop
   140001ccd:	90                   	nop
   140001cce:	90                   	nop
   140001ccf:	90                   	nop

0000000140001cd0 <_gnu_exception_handler>:
   140001cd0:	53                   	push   %rbx
   140001cd1:	48 83 ec 20          	sub    $0x20,%rsp
   140001cd5:	48 8b 11             	mov    (%rcx),%rdx
   140001cd8:	8b 02                	mov    (%rdx),%eax
   140001cda:	48 89 cb             	mov    %rcx,%rbx
   140001cdd:	89 c1                	mov    %eax,%ecx
   140001cdf:	81 e1 ff ff ff 20    	and    $0x20ffffff,%ecx
   140001ce5:	81 f9 43 43 47 20    	cmp    $0x20474343,%ecx
   140001ceb:	0f 84 bf 00 00 00    	je     140001db0 <_gnu_exception_handler+0xe0>
   140001cf1:	3d 96 00 00 c0       	cmp    $0xc0000096,%eax
   140001cf6:	77 47                	ja     140001d3f <_gnu_exception_handler+0x6f>
   140001cf8:	3d 8b 00 00 c0       	cmp    $0xc000008b,%eax
   140001cfd:	76 61                	jbe    140001d60 <_gnu_exception_handler+0x90>
   140001cff:	05 73 ff ff 3f       	add    $0x3fffff73,%eax
   140001d04:	83 f8 09             	cmp    $0x9,%eax
   140001d07:	0f 87 93 00 00 00    	ja     140001da0 <_gnu_exception_handler+0xd0>
   140001d0d:	48 8d 15 0c 26 00 00 	lea    0x260c(%rip),%rdx        # 140004320 <.rdata>
   140001d14:	48 63 04 82          	movslq (%rdx,%rax,4),%rax
   140001d18:	48 01 d0             	add    %rdx,%rax
   140001d1b:	ff e0                	jmp    *%rax
   140001d1d:	0f 1f 00             	nopl   (%rax)
   140001d20:	31 d2                	xor    %edx,%edx
   140001d22:	b9 08 00 00 00       	mov    $0x8,%ecx
   140001d27:	e8 84 0b 00 00       	call   1400028b0 <signal>
   140001d2c:	48 83 f8 01          	cmp    $0x1,%rax
   140001d30:	0f 84 3e 01 00 00    	je     140001e74 <_gnu_exception_handler+0x1a4>
   140001d36:	48 85 c0             	test   %rax,%rax
   140001d39:	0f 85 01 01 00 00    	jne    140001e40 <_gnu_exception_handler+0x170>
   140001d3f:	48 8b 05 7a 53 00 00 	mov    0x537a(%rip),%rax        # 1400070c0 <__mingw_oldexcpt_handler>
   140001d46:	48 85 c0             	test   %rax,%rax
   140001d49:	74 75                	je     140001dc0 <_gnu_exception_handler+0xf0>
   140001d4b:	48 89 d9             	mov    %rbx,%rcx
   140001d4e:	48 83 c4 20          	add    $0x20,%rsp
   140001d52:	5b                   	pop    %rbx
   140001d53:	48 ff e0             	rex.W jmp *%rax
   140001d56:	66 2e 0f 1f 84 00 00 	cs nopw 0x0(%rax,%rax,1)
   140001d5d:	00 00 00 
   140001d60:	3d 05 00 00 c0       	cmp    $0xc0000005,%eax
   140001d65:	0f 84 a5 00 00 00    	je     140001e10 <_gnu_exception_handler+0x140>
   140001d6b:	76 63                	jbe    140001dd0 <_gnu_exception_handler+0x100>
   140001d6d:	3d 08 00 00 c0       	cmp    $0xc0000008,%eax
   140001d72:	74 2c                	je     140001da0 <_gnu_exception_handler+0xd0>
   140001d74:	3d 1d 00 00 c0       	cmp    $0xc000001d,%eax
   140001d79:	75 c4                	jne    140001d3f <_gnu_exception_handler+0x6f>
   140001d7b:	31 d2                	xor    %edx,%edx
   140001d7d:	b9 04 00 00 00       	mov    $0x4,%ecx
   140001d82:	e8 29 0b 00 00       	call   1400028b0 <signal>
   140001d87:	48 83 f8 01          	cmp    $0x1,%rax
   140001d8b:	0f 84 cf 00 00 00    	je     140001e60 <_gnu_exception_handler+0x190>
   140001d91:	48 85 c0             	test   %rax,%rax
   140001d94:	74 a9                	je     140001d3f <_gnu_exception_handler+0x6f>
   140001d96:	b9 04 00 00 00       	mov    $0x4,%ecx
   140001d9b:	ff d0                	call   *%rax
   140001d9d:	0f 1f 00             	nopl   (%rax)
   140001da0:	b8 ff ff ff ff       	mov    $0xffffffff,%eax
   140001da5:	eb 1b                	jmp    140001dc2 <_gnu_exception_handler+0xf2>
   140001da7:	66 0f 1f 84 00 00 00 	nopw   0x0(%rax,%rax,1)
   140001dae:	00 00 
   140001db0:	f6 42 04 01          	testb  $0x1,0x4(%rdx)
   140001db4:	0f 85 37 ff ff ff    	jne    140001cf1 <_gnu_exception_handler+0x21>
   140001dba:	eb e4                	jmp    140001da0 <_gnu_exception_handler+0xd0>
   140001dbc:	0f 1f 40 00          	nopl   0x0(%rax)
   140001dc0:	31 c0                	xor    %eax,%eax
   140001dc2:	48 83 c4 20          	add    $0x20,%rsp
   140001dc6:	5b                   	pop    %rbx
   140001dc7:	c3                   	ret
   140001dc8:	0f 1f 84 00 00 00 00 	nopl   0x0(%rax,%rax,1)
   140001dcf:	00 
   140001dd0:	3d 02 00 00 80       	cmp    $0x80000002,%eax
   140001dd5:	0f 85 64 ff ff ff    	jne    140001d3f <_gnu_exception_handler+0x6f>
   140001ddb:	eb c3                	jmp    140001da0 <_gnu_exception_handler+0xd0>
   140001ddd:	0f 1f 00             	nopl   (%rax)
   140001de0:	31 d2                	xor    %edx,%edx
   140001de2:	b9 08 00 00 00       	mov    $0x8,%ecx
   140001de7:	e8 c4 0a 00 00       	call   1400028b0 <signal>
   140001dec:	48 83 f8 01          	cmp    $0x1,%rax
   140001df0:	0f 85 40 ff ff ff    	jne    140001d36 <_gnu_exception_handler+0x66>
   140001df6:	ba 01 00 00 00       	mov    $0x1,%edx
   140001dfb:	b9 08 00 00 00       	mov    $0x8,%ecx
   140001e00:	e8 ab 0a 00 00       	call   1400028b0 <signal>
   140001e05:	eb 99                	jmp    140001da0 <_gnu_exception_handler+0xd0>
   140001e07:	66 0f 1f 84 00 00 00 	nopw   0x0(%rax,%rax,1)
   140001e0e:	00 00 
   140001e10:	31 d2                	xor    %edx,%edx
   140001e12:	b9 0b 00 00 00       	mov    $0xb,%ecx
   140001e17:	e8 94 0a 00 00       	call   1400028b0 <signal>
   140001e1c:	48 83 f8 01          	cmp    $0x1,%rax
   140001e20:	74 2a                	je     140001e4c <_gnu_exception_handler+0x17c>
   140001e22:	48 85 c0             	test   %rax,%rax
   140001e25:	0f 84 14 ff ff ff    	je     140001d3f <_gnu_exception_handler+0x6f>
   140001e2b:	b9 0b 00 00 00       	mov    $0xb,%ecx
   140001e30:	ff d0                	call   *%rax
   140001e32:	e9 69 ff ff ff       	jmp    140001da0 <_gnu_exception_handler+0xd0>
   140001e37:	66 0f 1f 84 00 00 00 	nopw   0x0(%rax,%rax,1)
   140001e3e:	00 00 
   140001e40:	b9 08 00 00 00       	mov    $0x8,%ecx
   140001e45:	ff d0                	call   *%rax
   140001e47:	e9 54 ff ff ff       	jmp    140001da0 <_gnu_exception_handler+0xd0>
   140001e4c:	ba 01 00 00 00       	mov    $0x1,%edx
   140001e51:	b9 0b 00 00 00       	mov    $0xb,%ecx
   140001e56:	e8 55 0a 00 00       	call   1400028b0 <signal>
   140001e5b:	e9 40 ff ff ff       	jmp    140001da0 <_gnu_exception_handler+0xd0>
   140001e60:	ba 01 00 00 00       	mov    $0x1,%edx
   140001e65:	b9 04 00 00 00       	mov    $0x4,%ecx
   140001e6a:	e8 41 0a 00 00       	call   1400028b0 <signal>
   140001e6f:	e9 2c ff ff ff       	jmp    140001da0 <_gnu_exception_handler+0xd0>
   140001e74:	ba 01 00 00 00       	mov    $0x1,%edx
   140001e79:	b9 08 00 00 00       	mov    $0x8,%ecx
   140001e7e:	e8 2d 0a 00 00       	call   1400028b0 <signal>
   140001e83:	e8 a8 f8 ff ff       	call   140001730 <_fpreset>
   140001e88:	e9 13 ff ff ff       	jmp    140001da0 <_gnu_exception_handler+0xd0>
   140001e8d:	90                   	nop
   140001e8e:	90                   	nop
   140001e8f:	90                   	nop

0000000140001e90 <__mingwthr_run_key_dtors.part.0>:
   140001e90:	41 54                	push   %r12
   140001e92:	55                   	push   %rbp
   140001e93:	57                   	push   %rdi
   140001e94:	56                   	push   %rsi
   140001e95:	53                   	push   %rbx
   140001e96:	48 83 ec 20          	sub    $0x20,%rsp
   140001e9a:	4c 8d 25 5f 52 00 00 	lea    0x525f(%rip),%r12        # 140007100 <__mingwthr_cs>
   140001ea1:	4c 89 e1             	mov    %r12,%rcx
   140001ea4:	ff 15 f6 63 00 00    	call   *0x63f6(%rip)        # 1400082a0 <__imp_EnterCriticalSection>
   140001eaa:	48 8b 1d 2f 52 00 00 	mov    0x522f(%rip),%rbx        # 1400070e0 <key_dtor_list>
   140001eb1:	48 85 db             	test   %rbx,%rbx
   140001eb4:	74 36                	je     140001eec <__mingwthr_run_key_dtors.part.0+0x5c>
   140001eb6:	48 8b 2d 13 64 00 00 	mov    0x6413(%rip),%rbp        # 1400082d0 <__imp_TlsGetValue>
   140001ebd:	48 8b 3d e4 63 00 00 	mov    0x63e4(%rip),%rdi        # 1400082a8 <__imp_GetLastError>
   140001ec4:	0f 1f 40 00          	nopl   0x0(%rax)
   140001ec8:	8b 0b                	mov    (%rbx),%ecx
   140001eca:	ff d5                	call   *%rbp
   140001ecc:	48 89 c6             	mov    %rax,%rsi
   140001ecf:	ff d7                	call   *%rdi
   140001ed1:	48 85 f6             	test   %rsi,%rsi
   140001ed4:	74 0d                	je     140001ee3 <__mingwthr_run_key_dtors.part.0+0x53>
   140001ed6:	85 c0                	test   %eax,%eax
   140001ed8:	75 09                	jne    140001ee3 <__mingwthr_run_key_dtors.part.0+0x53>
   140001eda:	48 8b 43 08          	mov    0x8(%rbx),%rax
   140001ede:	48 89 f1             	mov    %rsi,%rcx
   140001ee1:	ff d0                	call   *%rax
   140001ee3:	48 8b 5b 10          	mov    0x10(%rbx),%rbx
   140001ee7:	48 85 db             	test   %rbx,%rbx
   140001eea:	75 dc                	jne    140001ec8 <__mingwthr_run_key_dtors.part.0+0x38>
   140001eec:	4c 89 e1             	mov    %r12,%rcx
   140001eef:	48 83 c4 20          	add    $0x20,%rsp
   140001ef3:	5b                   	pop    %rbx
   140001ef4:	5e                   	pop    %rsi
   140001ef5:	5f                   	pop    %rdi
   140001ef6:	5d                   	pop    %rbp
   140001ef7:	41 5c                	pop    %r12
   140001ef9:	48 ff 25 b8 63 00 00 	rex.W jmp *0x63b8(%rip)        # 1400082b8 <__imp_LeaveCriticalSection>

0000000140001f00 <___w64_mingwthr_add_key_dtor>:
   140001f00:	57                   	push   %rdi
   140001f01:	56                   	push   %rsi
   140001f02:	53                   	push   %rbx
   140001f03:	48 83 ec 20          	sub    $0x20,%rsp
   140001f07:	8b 05 db 51 00 00    	mov    0x51db(%rip),%eax        # 1400070e8 <__mingwthr_cs_init>
   140001f0d:	89 cf                	mov    %ecx,%edi
   140001f0f:	48 89 d6             	mov    %rdx,%rsi
   140001f12:	85 c0                	test   %eax,%eax
   140001f14:	75 0a                	jne    140001f20 <___w64_mingwthr_add_key_dtor+0x20>
   140001f16:	31 c0                	xor    %eax,%eax
   140001f18:	48 83 c4 20          	add    $0x20,%rsp
   140001f1c:	5b                   	pop    %rbx
   140001f1d:	5e                   	pop    %rsi
   140001f1e:	5f                   	pop    %rdi
   140001f1f:	c3                   	ret
   140001f20:	ba 18 00 00 00       	mov    $0x18,%edx
   140001f25:	b9 01 00 00 00       	mov    $0x1,%ecx
   140001f2a:	e8 b9 09 00 00       	call   1400028e8 <calloc>
   140001f2f:	48 89 c3             	mov    %rax,%rbx
   140001f32:	48 85 c0             	test   %rax,%rax
   140001f35:	74 33                	je     140001f6a <___w64_mingwthr_add_key_dtor+0x6a>
   140001f37:	48 89 70 08          	mov    %rsi,0x8(%rax)
   140001f3b:	48 8d 35 be 51 00 00 	lea    0x51be(%rip),%rsi        # 140007100 <__mingwthr_cs>
   140001f42:	89 38                	mov    %edi,(%rax)
   140001f44:	48 89 f1             	mov    %rsi,%rcx
   140001f47:	ff 15 53 63 00 00    	call   *0x6353(%rip)        # 1400082a0 <__imp_EnterCriticalSection>
   140001f4d:	48 8b 05 8c 51 00 00 	mov    0x518c(%rip),%rax        # 1400070e0 <key_dtor_list>
   140001f54:	48 89 f1             	mov    %rsi,%rcx
   140001f57:	48 89 1d 82 51 00 00 	mov    %rbx,0x5182(%rip)        # 1400070e0 <key_dtor_list>
   140001f5e:	48 89 43 10          	mov    %rax,0x10(%rbx)
   140001f62:	ff 15 50 63 00 00    	call   *0x6350(%rip)        # 1400082b8 <__imp_LeaveCriticalSection>
   140001f68:	eb ac                	jmp    140001f16 <___w64_mingwthr_add_key_dtor+0x16>
   140001f6a:	83 c8 ff             	or     $0xffffffff,%eax
   140001f6d:	eb a9                	jmp    140001f18 <___w64_mingwthr_add_key_dtor+0x18>
   140001f6f:	90                   	nop

0000000140001f70 <___w64_mingwthr_remove_key_dtor>:
   140001f70:	56                   	push   %rsi
   140001f71:	53                   	push   %rbx
   140001f72:	48 83 ec 28          	sub    $0x28,%rsp
   140001f76:	8b 05 6c 51 00 00    	mov    0x516c(%rip),%eax        # 1400070e8 <__mingwthr_cs_init>
   140001f7c:	89 cb                	mov    %ecx,%ebx
   140001f7e:	85 c0                	test   %eax,%eax
   140001f80:	75 0e                	jne    140001f90 <___w64_mingwthr_remove_key_dtor+0x20>
   140001f82:	31 c0                	xor    %eax,%eax
   140001f84:	48 83 c4 28          	add    $0x28,%rsp
   140001f88:	5b                   	pop    %rbx
   140001f89:	5e                   	pop    %rsi
   140001f8a:	c3                   	ret
   140001f8b:	0f 1f 44 00 00       	nopl   0x0(%rax,%rax,1)
   140001f90:	48 8d 35 69 51 00 00 	lea    0x5169(%rip),%rsi        # 140007100 <__mingwthr_cs>
   140001f97:	48 89 f1             	mov    %rsi,%rcx
   140001f9a:	ff 15 00 63 00 00    	call   *0x6300(%rip)        # 1400082a0 <__imp_EnterCriticalSection>
   140001fa0:	48 8b 0d 39 51 00 00 	mov    0x5139(%rip),%rcx        # 1400070e0 <key_dtor_list>
   140001fa7:	48 85 c9             	test   %rcx,%rcx
   140001faa:	74 27                	je     140001fd3 <___w64_mingwthr_remove_key_dtor+0x63>
   140001fac:	31 d2                	xor    %edx,%edx
   140001fae:	eb 0b                	jmp    140001fbb <___w64_mingwthr_remove_key_dtor+0x4b>
   140001fb0:	48 89 ca             	mov    %rcx,%rdx
   140001fb3:	48 85 c0             	test   %rax,%rax
   140001fb6:	74 1b                	je     140001fd3 <___w64_mingwthr_remove_key_dtor+0x63>
   140001fb8:	48 89 c1             	mov    %rax,%rcx
   140001fbb:	8b 01                	mov    (%rcx),%eax
   140001fbd:	39 d8                	cmp    %ebx,%eax
   140001fbf:	48 8b 41 10          	mov    0x10(%rcx),%rax
   140001fc3:	75 eb                	jne    140001fb0 <___w64_mingwthr_remove_key_dtor+0x40>
   140001fc5:	48 85 d2             	test   %rdx,%rdx
   140001fc8:	74 1e                	je     140001fe8 <___w64_mingwthr_remove_key_dtor+0x78>
   140001fca:	48 89 42 10          	mov    %rax,0x10(%rdx)
   140001fce:	e8 1d 09 00 00       	call   1400028f0 <free>
   140001fd3:	48 89 f1             	mov    %rsi,%rcx
   140001fd6:	ff 15 dc 62 00 00    	call   *0x62dc(%rip)        # 1400082b8 <__imp_LeaveCriticalSection>
   140001fdc:	31 c0                	xor    %eax,%eax
   140001fde:	48 83 c4 28          	add    $0x28,%rsp
   140001fe2:	5b                   	pop    %rbx
   140001fe3:	5e                   	pop    %rsi
   140001fe4:	c3                   	ret
   140001fe5:	0f 1f 00             	nopl   (%rax)
   140001fe8:	48 89 05 f1 50 00 00 	mov    %rax,0x50f1(%rip)        # 1400070e0 <key_dtor_list>
   140001fef:	eb dd                	jmp    140001fce <___w64_mingwthr_remove_key_dtor+0x5e>
   140001ff1:	66 66 2e 0f 1f 84 00 	data16 cs nopw 0x0(%rax,%rax,1)
   140001ff8:	00 00 00 00 
   140001ffc:	0f 1f 40 00          	nopl   0x0(%rax)

0000000140002000 <__mingw_TLScallback>:
   140002000:	53                   	push   %rbx
   140002001:	48 83 ec 20          	sub    $0x20,%rsp
   140002005:	83 fa 02             	cmp    $0x2,%edx
   140002008:	0f 84 b2 00 00 00    	je     1400020c0 <__mingw_TLScallback+0xc0>
   14000200e:	77 30                	ja     140002040 <__mingw_TLScallback+0x40>
   140002010:	85 d2                	test   %edx,%edx
   140002012:	74 4c                	je     140002060 <__mingw_TLScallback+0x60>
   140002014:	8b 05 ce 50 00 00    	mov    0x50ce(%rip),%eax        # 1400070e8 <__mingwthr_cs_init>
   14000201a:	85 c0                	test   %eax,%eax
   14000201c:	0f 84 be 00 00 00    	je     1400020e0 <__mingw_TLScallback+0xe0>
   140002022:	c7 05 bc 50 00 00 01 	movl   $0x1,0x50bc(%rip)        # 1400070e8 <__mingwthr_cs_init>
   140002029:	00 00 00 
   14000202c:	b8 01 00 00 00       	mov    $0x1,%eax
   140002031:	48 83 c4 20          	add    $0x20,%rsp
   140002035:	5b                   	pop    %rbx
   140002036:	c3                   	ret
   140002037:	66 0f 1f 84 00 00 00 	nopw   0x0(%rax,%rax,1)
   14000203e:	00 00 
   140002040:	83 fa 03             	cmp    $0x3,%edx
   140002043:	75 e7                	jne    14000202c <__mingw_TLScallback+0x2c>
   140002045:	8b 05 9d 50 00 00    	mov    0x509d(%rip),%eax        # 1400070e8 <__mingwthr_cs_init>
   14000204b:	85 c0                	test   %eax,%eax
   14000204d:	74 dd                	je     14000202c <__mingw_TLScallback+0x2c>
   14000204f:	e8 3c fe ff ff       	call   140001e90 <__mingwthr_run_key_dtors.part.0>
   140002054:	eb d6                	jmp    14000202c <__mingw_TLScallback+0x2c>
   140002056:	66 2e 0f 1f 84 00 00 	cs nopw 0x0(%rax,%rax,1)
   14000205d:	00 00 00 
   140002060:	8b 05 82 50 00 00    	mov    0x5082(%rip),%eax        # 1400070e8 <__mingwthr_cs_init>
   140002066:	85 c0                	test   %eax,%eax
   140002068:	75 66                	jne    1400020d0 <__mingw_TLScallback+0xd0>
   14000206a:	8b 05 78 50 00 00    	mov    0x5078(%rip),%eax        # 1400070e8 <__mingwthr_cs_init>
   140002070:	83 f8 01             	cmp    $0x1,%eax
   140002073:	75 b7                	jne    14000202c <__mingw_TLScallback+0x2c>
   140002075:	48 8b 1d 64 50 00 00 	mov    0x5064(%rip),%rbx        # 1400070e0 <key_dtor_list>
   14000207c:	48 85 db             	test   %rbx,%rbx
   14000207f:	74 18                	je     140002099 <__mingw_TLScallback+0x99>
   140002081:	0f 1f 80 00 00 00 00 	nopl   0x0(%rax)
   140002088:	48 89 d9             	mov    %rbx,%rcx
   14000208b:	48 8b 5b 10          	mov    0x10(%rbx),%rbx
   14000208f:	e8 5c 08 00 00       	call   1400028f0 <free>
   140002094:	48 85 db             	test   %rbx,%rbx
   140002097:	75 ef                	jne    140002088 <__mingw_TLScallback+0x88>
   140002099:	48 8d 0d 60 50 00 00 	lea    0x5060(%rip),%rcx        # 140007100 <__mingwthr_cs>
   1400020a0:	48 c7 05 35 50 00 00 	movq   $0x0,0x5035(%rip)        # 1400070e0 <key_dtor_list>
   1400020a7:	00 00 00 00 
   1400020ab:	c7 05 33 50 00 00 00 	movl   $0x0,0x5033(%rip)        # 1400070e8 <__mingwthr_cs_init>
   1400020b2:	00 00 00 
   1400020b5:	ff 15 dd 61 00 00    	call   *0x61dd(%rip)        # 140008298 <__IAT_start__>
   1400020bb:	e9 6c ff ff ff       	jmp    14000202c <__mingw_TLScallback+0x2c>
   1400020c0:	e8 6b f6 ff ff       	call   140001730 <_fpreset>
   1400020c5:	b8 01 00 00 00       	mov    $0x1,%eax
   1400020ca:	48 83 c4 20          	add    $0x20,%rsp
   1400020ce:	5b                   	pop    %rbx
   1400020cf:	c3                   	ret
   1400020d0:	e8 bb fd ff ff       	call   140001e90 <__mingwthr_run_key_dtors.part.0>
   1400020d5:	eb 93                	jmp    14000206a <__mingw_TLScallback+0x6a>
   1400020d7:	66 0f 1f 84 00 00 00 	nopw   0x0(%rax,%rax,1)
   1400020de:	00 00 
   1400020e0:	48 8d 0d 19 50 00 00 	lea    0x5019(%rip),%rcx        # 140007100 <__mingwthr_cs>
   1400020e7:	ff 15 c3 61 00 00    	call   *0x61c3(%rip)        # 1400082b0 <__imp_InitializeCriticalSection>
   1400020ed:	e9 30 ff ff ff       	jmp    140002022 <__mingw_TLScallback+0x22>
   1400020f2:	90                   	nop
   1400020f3:	90                   	nop
   1400020f4:	90                   	nop
   1400020f5:	90                   	nop
   1400020f6:	90                   	nop
   1400020f7:	90                   	nop
   1400020f8:	90                   	nop
   1400020f9:	90                   	nop
   1400020fa:	90                   	nop
   1400020fb:	90                   	nop
   1400020fc:	90                   	nop
   1400020fd:	90                   	nop
   1400020fe:	90                   	nop
   1400020ff:	90                   	nop

0000000140002100 <_ValidateImageBase>:
   140002100:	31 c0                	xor    %eax,%eax
   140002102:	66 81 39 4d 5a       	cmpw   $0x5a4d,(%rcx)
   140002107:	75 0f                	jne    140002118 <_ValidateImageBase+0x18>
   140002109:	48 63 51 3c          	movslq 0x3c(%rcx),%rdx
   14000210d:	48 01 d1             	add    %rdx,%rcx
   140002110:	81 39 50 45 00 00    	cmpl   $0x4550,(%rcx)
   140002116:	74 08                	je     140002120 <_ValidateImageBase+0x20>
   140002118:	c3                   	ret
   140002119:	0f 1f 80 00 00 00 00 	nopl   0x0(%rax)
   140002120:	31 c0                	xor    %eax,%eax
   140002122:	66 81 79 18 0b 02    	cmpw   $0x20b,0x18(%rcx)
   140002128:	0f 94 c0             	sete   %al
   14000212b:	c3                   	ret
   14000212c:	0f 1f 40 00          	nopl   0x0(%rax)

0000000140002130 <_FindPESection>:
   140002130:	48 63 41 3c          	movslq 0x3c(%rcx),%rax
   140002134:	48 01 c1             	add    %rax,%rcx
   140002137:	0f b7 41 14          	movzwl 0x14(%rcx),%eax
   14000213b:	44 0f b7 41 06       	movzwl 0x6(%rcx),%r8d
   140002140:	48 8d 44 01 18       	lea    0x18(%rcx,%rax,1),%rax
   140002145:	66 45 85 c0          	test   %r8w,%r8w
   140002149:	74 32                	je     14000217d <_FindPESection+0x4d>
   14000214b:	41 8d 48 ff          	lea    -0x1(%r8),%ecx
   14000214f:	48 8d 0c 89          	lea    (%rcx,%rcx,4),%rcx
   140002153:	4c 8d 4c c8 28       	lea    0x28(%rax,%rcx,8),%r9
   140002158:	0f 1f 84 00 00 00 00 	nopl   0x0(%rax,%rax,1)
   14000215f:	00 
   140002160:	44 8b 40 0c          	mov    0xc(%rax),%r8d
   140002164:	4c 89 c1             	mov    %r8,%rcx
   140002167:	4c 39 c2             	cmp    %r8,%rdx
   14000216a:	72 08                	jb     140002174 <_FindPESection+0x44>
   14000216c:	03 48 08             	add    0x8(%rax),%ecx
   14000216f:	48 39 ca             	cmp    %rcx,%rdx
   140002172:	72 0b                	jb     14000217f <_FindPESection+0x4f>
   140002174:	48 83 c0 28          	add    $0x28,%rax
   140002178:	4c 39 c8             	cmp    %r9,%rax
   14000217b:	75 e3                	jne    140002160 <_FindPESection+0x30>
   14000217d:	31 c0                	xor    %eax,%eax
   14000217f:	c3                   	ret

0000000140002180 <_FindPESectionByName>:
   140002180:	57                   	push   %rdi
   140002181:	56                   	push   %rsi
   140002182:	53                   	push   %rbx
   140002183:	48 83 ec 20          	sub    $0x20,%rsp
   140002187:	48 89 ce             	mov    %rcx,%rsi
   14000218a:	e8 51 06 00 00       	call   1400027e0 <strlen>
   14000218f:	48 83 f8 08          	cmp    $0x8,%rax
   140002193:	77 7b                	ja     140002210 <_FindPESectionByName+0x90>
   140002195:	48 8b 15 04 22 00 00 	mov    0x2204(%rip),%rdx        # 1400043a0 <.refptr.__ImageBase>
   14000219c:	31 db                	xor    %ebx,%ebx
   14000219e:	66 81 3a 4d 5a       	cmpw   $0x5a4d,(%rdx)
   1400021a3:	75 59                	jne    1400021fe <_FindPESectionByName+0x7e>
   1400021a5:	48 63 42 3c          	movslq 0x3c(%rdx),%rax
   1400021a9:	48 01 d0             	add    %rdx,%rax
   1400021ac:	81 38 50 45 00 00    	cmpl   $0x4550,(%rax)
   1400021b2:	75 4a                	jne    1400021fe <_FindPESectionByName+0x7e>
   1400021b4:	66 81 78 18 0b 02    	cmpw   $0x20b,0x18(%rax)
   1400021ba:	75 42                	jne    1400021fe <_FindPESectionByName+0x7e>
   1400021bc:	0f b7 50 14          	movzwl 0x14(%rax),%edx
   1400021c0:	48 8d 5c 10 18       	lea    0x18(%rax,%rdx,1),%rbx
   1400021c5:	0f b7 50 06          	movzwl 0x6(%rax),%edx
   1400021c9:	66 85 d2             	test   %dx,%dx
   1400021cc:	74 42                	je     140002210 <_FindPESectionByName+0x90>
   1400021ce:	8d 42 ff             	lea    -0x1(%rdx),%eax
   1400021d1:	48 8d 04 80          	lea    (%rax,%rax,4),%rax
   1400021d5:	48 8d 7c c3 28       	lea    0x28(%rbx,%rax,8),%rdi
   1400021da:	eb 0d                	jmp    1400021e9 <_FindPESectionByName+0x69>
   1400021dc:	0f 1f 40 00          	nopl   0x0(%rax)
   1400021e0:	48 83 c3 28          	add    $0x28,%rbx
   1400021e4:	48 39 fb             	cmp    %rdi,%rbx
   1400021e7:	74 27                	je     140002210 <_FindPESectionByName+0x90>
   1400021e9:	41 b8 08 00 00 00    	mov    $0x8,%r8d
   1400021ef:	48 89 f2             	mov    %rsi,%rdx
   1400021f2:	48 89 d9             	mov    %rbx,%rcx
   1400021f5:	e8 ee 05 00 00       	call   1400027e8 <strncmp>
   1400021fa:	85 c0                	test   %eax,%eax
   1400021fc:	75 e2                	jne    1400021e0 <_FindPESectionByName+0x60>
   1400021fe:	48 89 d8             	mov    %rbx,%rax
   140002201:	48 83 c4 20          	add    $0x20,%rsp
   140002205:	5b                   	pop    %rbx
   140002206:	5e                   	pop    %rsi
   140002207:	5f                   	pop    %rdi
   140002208:	c3                   	ret
   140002209:	0f 1f 80 00 00 00 00 	nopl   0x0(%rax)
   140002210:	31 db                	xor    %ebx,%ebx
   140002212:	48 89 d8             	mov    %rbx,%rax
   140002215:	48 83 c4 20          	add    $0x20,%rsp
   140002219:	5b                   	pop    %rbx
   14000221a:	5e                   	pop    %rsi
   14000221b:	5f                   	pop    %rdi
   14000221c:	c3                   	ret
   14000221d:	0f 1f 00             	nopl   (%rax)

0000000140002220 <__mingw_GetSectionForAddress>:
   140002220:	48 8b 15 79 21 00 00 	mov    0x2179(%rip),%rdx        # 1400043a0 <.refptr.__ImageBase>
   140002227:	31 c0                	xor    %eax,%eax
   140002229:	66 81 3a 4d 5a       	cmpw   $0x5a4d,(%rdx)
   14000222e:	75 10                	jne    140002240 <__mingw_GetSectionForAddress+0x20>
   140002230:	4c 63 42 3c          	movslq 0x3c(%rdx),%r8
   140002234:	49 01 d0             	add    %rdx,%r8
   140002237:	41 81 38 50 45 00 00 	cmpl   $0x4550,(%r8)
   14000223e:	74 08                	je     140002248 <__mingw_GetSectionForAddress+0x28>
   140002240:	c3                   	ret
   140002241:	0f 1f 80 00 00 00 00 	nopl   0x0(%rax)
   140002248:	66 41 81 78 18 0b 02 	cmpw   $0x20b,0x18(%r8)
   14000224f:	75 ef                	jne    140002240 <__mingw_GetSectionForAddress+0x20>
   140002251:	41 0f b7 40 14       	movzwl 0x14(%r8),%eax
   140002256:	48 29 d1             	sub    %rdx,%rcx
   140002259:	49 8d 44 00 18       	lea    0x18(%r8,%rax,1),%rax
   14000225e:	45 0f b7 40 06       	movzwl 0x6(%r8),%r8d
   140002263:	66 45 85 c0          	test   %r8w,%r8w
   140002267:	74 34                	je     14000229d <__mingw_GetSectionForAddress+0x7d>
   140002269:	41 8d 50 ff          	lea    -0x1(%r8),%edx
   14000226d:	48 8d 14 92          	lea    (%rdx,%rdx,4),%rdx
   140002271:	4c 8d 4c d0 28       	lea    0x28(%rax,%rdx,8),%r9
   140002276:	66 2e 0f 1f 84 00 00 	cs nopw 0x0(%rax,%rax,1)
   14000227d:	00 00 00 
   140002280:	44 8b 40 0c          	mov    0xc(%rax),%r8d
   140002284:	4c 89 c2             	mov    %r8,%rdx
   140002287:	4c 39 c1             	cmp    %r8,%rcx
   14000228a:	72 08                	jb     140002294 <__mingw_GetSectionForAddress+0x74>
   14000228c:	03 50 08             	add    0x8(%rax),%edx
   14000228f:	48 39 d1             	cmp    %rdx,%rcx
   140002292:	72 ac                	jb     140002240 <__mingw_GetSectionForAddress+0x20>
   140002294:	48 83 c0 28          	add    $0x28,%rax
   140002298:	4c 39 c8             	cmp    %r9,%rax
   14000229b:	75 e3                	jne    140002280 <__mingw_GetSectionForAddress+0x60>
   14000229d:	31 c0                	xor    %eax,%eax
   14000229f:	c3                   	ret

00000001400022a0 <__mingw_GetSectionCount>:
   1400022a0:	48 8b 05 f9 20 00 00 	mov    0x20f9(%rip),%rax        # 1400043a0 <.refptr.__ImageBase>
   1400022a7:	31 c9                	xor    %ecx,%ecx
   1400022a9:	66 81 38 4d 5a       	cmpw   $0x5a4d,(%rax)
   1400022ae:	75 0f                	jne    1400022bf <__mingw_GetSectionCount+0x1f>
   1400022b0:	48 63 50 3c          	movslq 0x3c(%rax),%rdx
   1400022b4:	48 01 d0             	add    %rdx,%rax
   1400022b7:	81 38 50 45 00 00    	cmpl   $0x4550,(%rax)
   1400022bd:	74 09                	je     1400022c8 <__mingw_GetSectionCount+0x28>
   1400022bf:	89 c8                	mov    %ecx,%eax
   1400022c1:	c3                   	ret
   1400022c2:	66 0f 1f 44 00 00    	nopw   0x0(%rax,%rax,1)
   1400022c8:	66 81 78 18 0b 02    	cmpw   $0x20b,0x18(%rax)
   1400022ce:	75 ef                	jne    1400022bf <__mingw_GetSectionCount+0x1f>
   1400022d0:	0f b7 48 06          	movzwl 0x6(%rax),%ecx
   1400022d4:	89 c8                	mov    %ecx,%eax
   1400022d6:	c3                   	ret
   1400022d7:	66 0f 1f 84 00 00 00 	nopw   0x0(%rax,%rax,1)
   1400022de:	00 00 

00000001400022e0 <_FindPESectionExec>:
   1400022e0:	4c 8b 05 b9 20 00 00 	mov    0x20b9(%rip),%r8        # 1400043a0 <.refptr.__ImageBase>
   1400022e7:	31 c0                	xor    %eax,%eax
   1400022e9:	66 41 81 38 4d 5a    	cmpw   $0x5a4d,(%r8)
   1400022ef:	75 0f                	jne    140002300 <_FindPESectionExec+0x20>
   1400022f1:	49 63 50 3c          	movslq 0x3c(%r8),%rdx
   1400022f5:	4c 01 c2             	add    %r8,%rdx
   1400022f8:	81 3a 50 45 00 00    	cmpl   $0x4550,(%rdx)
   1400022fe:	74 08                	je     140002308 <_FindPESectionExec+0x28>
   140002300:	c3                   	ret
   140002301:	0f 1f 80 00 00 00 00 	nopl   0x0(%rax)
   140002308:	66 81 7a 18 0b 02    	cmpw   $0x20b,0x18(%rdx)
   14000230e:	75 f0                	jne    140002300 <_FindPESectionExec+0x20>
   140002310:	0f b7 42 14          	movzwl 0x14(%rdx),%eax
   140002314:	44 0f b7 42 06       	movzwl 0x6(%rdx),%r8d
   140002319:	48 8d 44 02 18       	lea    0x18(%rdx,%rax,1),%rax
   14000231e:	66 45 85 c0          	test   %r8w,%r8w
   140002322:	74 2c                	je     140002350 <_FindPESectionExec+0x70>
   140002324:	41 8d 50 ff          	lea    -0x1(%r8),%edx
   140002328:	48 8d 14 92          	lea    (%rdx,%rdx,4),%rdx
   14000232c:	48 8d 54 d0 28       	lea    0x28(%rax,%rdx,8),%rdx
   140002331:	0f 1f 80 00 00 00 00 	nopl   0x0(%rax)
   140002338:	f6 40 27 20          	testb  $0x20,0x27(%rax)
   14000233c:	74 09                	je     140002347 <_FindPESectionExec+0x67>
   14000233e:	48 85 c9             	test   %rcx,%rcx
   140002341:	74 bd                	je     140002300 <_FindPESectionExec+0x20>
   140002343:	48 83 e9 01          	sub    $0x1,%rcx
   140002347:	48 83 c0 28          	add    $0x28,%rax
   14000234b:	48 39 c2             	cmp    %rax,%rdx
   14000234e:	75 e8                	jne    140002338 <_FindPESectionExec+0x58>
   140002350:	31 c0                	xor    %eax,%eax
   140002352:	c3                   	ret
   140002353:	66 66 2e 0f 1f 84 00 	data16 cs nopw 0x0(%rax,%rax,1)
   14000235a:	00 00 00 00 
   14000235e:	66 90                	xchg   %ax,%ax

0000000140002360 <_GetPEImageBase>:
   140002360:	48 8b 05 39 20 00 00 	mov    0x2039(%rip),%rax        # 1400043a0 <.refptr.__ImageBase>
   140002367:	31 d2                	xor    %edx,%edx
   140002369:	66 81 38 4d 5a       	cmpw   $0x5a4d,(%rax)
   14000236e:	75 0f                	jne    14000237f <_GetPEImageBase+0x1f>
   140002370:	48 63 48 3c          	movslq 0x3c(%rax),%rcx
   140002374:	48 01 c1             	add    %rax,%rcx
   140002377:	81 39 50 45 00 00    	cmpl   $0x4550,(%rcx)
   14000237d:	74 09                	je     140002388 <_GetPEImageBase+0x28>
   14000237f:	48 89 d0             	mov    %rdx,%rax
   140002382:	c3                   	ret
   140002383:	0f 1f 44 00 00       	nopl   0x0(%rax,%rax,1)
   140002388:	66 81 79 18 0b 02    	cmpw   $0x20b,0x18(%rcx)
   14000238e:	48 0f 44 d0          	cmove  %rax,%rdx
   140002392:	48 89 d0             	mov    %rdx,%rax
   140002395:	c3                   	ret
   140002396:	66 2e 0f 1f 84 00 00 	cs nopw 0x0(%rax,%rax,1)
   14000239d:	00 00 00 

00000001400023a0 <_IsNonwritableInCurrentImage>:
   1400023a0:	48 8b 15 f9 1f 00 00 	mov    0x1ff9(%rip),%rdx        # 1400043a0 <.refptr.__ImageBase>
   1400023a7:	31 c0                	xor    %eax,%eax
   1400023a9:	66 81 3a 4d 5a       	cmpw   $0x5a4d,(%rdx)
   1400023ae:	75 10                	jne    1400023c0 <_IsNonwritableInCurrentImage+0x20>
   1400023b0:	4c 63 42 3c          	movslq 0x3c(%rdx),%r8
   1400023b4:	49 01 d0             	add    %rdx,%r8
   1400023b7:	41 81 38 50 45 00 00 	cmpl   $0x4550,(%r8)
   1400023be:	74 08                	je     1400023c8 <_IsNonwritableInCurrentImage+0x28>
   1400023c0:	c3                   	ret
   1400023c1:	0f 1f 80 00 00 00 00 	nopl   0x0(%rax)
   1400023c8:	66 41 81 78 18 0b 02 	cmpw   $0x20b,0x18(%r8)
   1400023cf:	75 ef                	jne    1400023c0 <_IsNonwritableInCurrentImage+0x20>
   1400023d1:	48 29 d1             	sub    %rdx,%rcx
   1400023d4:	45 0f b7 48 06       	movzwl 0x6(%r8),%r9d
   1400023d9:	41 0f b7 50 14       	movzwl 0x14(%r8),%edx
   1400023de:	49 8d 54 10 18       	lea    0x18(%r8,%rdx,1),%rdx
   1400023e3:	66 45 85 c9          	test   %r9w,%r9w
   1400023e7:	74 d7                	je     1400023c0 <_IsNonwritableInCurrentImage+0x20>
   1400023e9:	41 8d 41 ff          	lea    -0x1(%r9),%eax
   1400023ed:	48 8d 04 80          	lea    (%rax,%rax,4),%rax
   1400023f1:	4c 8d 4c c2 28       	lea    0x28(%rdx,%rax,8),%r9
   1400023f6:	66 2e 0f 1f 84 00 00 	cs nopw 0x0(%rax,%rax,1)
   1400023fd:	00 00 00 
   140002400:	44 8b 42 0c          	mov    0xc(%rdx),%r8d
   140002404:	4c 89 c0             	mov    %r8,%rax
   140002407:	4c 39 c1             	cmp    %r8,%rcx
   14000240a:	72 08                	jb     140002414 <_IsNonwritableInCurrentImage+0x74>
   14000240c:	03 42 08             	add    0x8(%rdx),%eax
   14000240f:	48 39 c1             	cmp    %rax,%rcx
   140002412:	72 0c                	jb     140002420 <_IsNonwritableInCurrentImage+0x80>
   140002414:	48 83 c2 28          	add    $0x28,%rdx
   140002418:	4c 39 ca             	cmp    %r9,%rdx
   14000241b:	75 e3                	jne    140002400 <_IsNonwritableInCurrentImage+0x60>
   14000241d:	31 c0                	xor    %eax,%eax
   14000241f:	c3                   	ret
   140002420:	8b 42 24             	mov    0x24(%rdx),%eax
   140002423:	f7 d0                	not    %eax
   140002425:	c1 e8 1f             	shr    $0x1f,%eax
   140002428:	c3                   	ret
   140002429:	0f 1f 80 00 00 00 00 	nopl   0x0(%rax)

0000000140002430 <__mingw_enum_import_library_names>:
   140002430:	4c 8b 1d 69 1f 00 00 	mov    0x1f69(%rip),%r11        # 1400043a0 <.refptr.__ImageBase>
   140002437:	45 31 c9             	xor    %r9d,%r9d
   14000243a:	66 41 81 3b 4d 5a    	cmpw   $0x5a4d,(%r11)
   140002440:	75 10                	jne    140002452 <__mingw_enum_import_library_names+0x22>
   140002442:	4d 63 43 3c          	movslq 0x3c(%r11),%r8
   140002446:	4d 01 d8             	add    %r11,%r8
   140002449:	41 81 38 50 45 00 00 	cmpl   $0x4550,(%r8)
   140002450:	74 0e                	je     140002460 <__mingw_enum_import_library_names+0x30>
   140002452:	4c 89 c8             	mov    %r9,%rax
   140002455:	c3                   	ret
   140002456:	66 2e 0f 1f 84 00 00 	cs nopw 0x0(%rax,%rax,1)
   14000245d:	00 00 00 
   140002460:	66 41 81 78 18 0b 02 	cmpw   $0x20b,0x18(%r8)
   140002467:	75 e9                	jne    140002452 <__mingw_enum_import_library_names+0x22>
   140002469:	41 8b 80 90 00 00 00 	mov    0x90(%r8),%eax
   140002470:	85 c0                	test   %eax,%eax
   140002472:	74 de                	je     140002452 <__mingw_enum_import_library_names+0x22>
   140002474:	41 0f b7 50 14       	movzwl 0x14(%r8),%edx
   140002479:	45 0f b7 50 06       	movzwl 0x6(%r8),%r10d
   14000247e:	49 8d 54 10 18       	lea    0x18(%r8,%rdx,1),%rdx
   140002483:	66 45 85 d2          	test   %r10w,%r10w
   140002487:	74 c9                	je     140002452 <__mingw_enum_import_library_names+0x22>
   140002489:	45 8d 42 ff          	lea    -0x1(%r10),%r8d
   14000248d:	4f 8d 04 80          	lea    (%r8,%r8,4),%r8
   140002491:	4e 8d 54 c2 28       	lea    0x28(%rdx,%r8,8),%r10
   140002496:	66 2e 0f 1f 84 00 00 	cs nopw 0x0(%rax,%rax,1)
   14000249d:	00 00 00 
   1400024a0:	44 8b 4a 0c          	mov    0xc(%rdx),%r9d
   1400024a4:	4d 89 c8             	mov    %r9,%r8
   1400024a7:	4c 39 c8             	cmp    %r9,%rax
   1400024aa:	72 09                	jb     1400024b5 <__mingw_enum_import_library_names+0x85>
   1400024ac:	44 03 42 08          	add    0x8(%rdx),%r8d
   1400024b0:	4c 39 c0             	cmp    %r8,%rax
   1400024b3:	72 13                	jb     1400024c8 <__mingw_enum_import_library_names+0x98>
   1400024b5:	48 83 c2 28          	add    $0x28,%rdx
   1400024b9:	49 39 d2             	cmp    %rdx,%r10
   1400024bc:	75 e2                	jne    1400024a0 <__mingw_enum_import_library_names+0x70>
   1400024be:	45 31 c9             	xor    %r9d,%r9d
   1400024c1:	4c 89 c8             	mov    %r9,%rax
   1400024c4:	c3                   	ret
   1400024c5:	0f 1f 00             	nopl   (%rax)
   1400024c8:	4c 01 d8             	add    %r11,%rax
   1400024cb:	eb 0a                	jmp    1400024d7 <__mingw_enum_import_library_names+0xa7>
   1400024cd:	0f 1f 00             	nopl   (%rax)
   1400024d0:	83 e9 01             	sub    $0x1,%ecx
   1400024d3:	48 83 c0 14          	add    $0x14,%rax
   1400024d7:	44 8b 40 04          	mov    0x4(%rax),%r8d
   1400024db:	45 85 c0             	test   %r8d,%r8d
   1400024de:	75 07                	jne    1400024e7 <__mingw_enum_import_library_names+0xb7>
   1400024e0:	8b 50 0c             	mov    0xc(%rax),%edx
   1400024e3:	85 d2                	test   %edx,%edx
   1400024e5:	74 d7                	je     1400024be <__mingw_enum_import_library_names+0x8e>
   1400024e7:	85 c9                	test   %ecx,%ecx
   1400024e9:	7f e5                	jg     1400024d0 <__mingw_enum_import_library_names+0xa0>
   1400024eb:	44 8b 48 0c          	mov    0xc(%rax),%r9d
   1400024ef:	4d 01 d9             	add    %r11,%r9
   1400024f2:	4c 89 c8             	mov    %r9,%rax
   1400024f5:	c3                   	ret
   1400024f6:	90                   	nop
   1400024f7:	90                   	nop
   1400024f8:	90                   	nop
   1400024f9:	90                   	nop
   1400024fa:	90                   	nop
   1400024fb:	90                   	nop
   1400024fc:	90                   	nop
   1400024fd:	90                   	nop
   1400024fe:	90                   	nop
   1400024ff:	90                   	nop

0000000140002500 <___chkstk_ms>:
   140002500:	51                   	push   %rcx
   140002501:	50                   	push   %rax
   140002502:	48 3d 00 10 00 00    	cmp    $0x1000,%rax
   140002508:	48 8d 4c 24 18       	lea    0x18(%rsp),%rcx
   14000250d:	72 19                	jb     140002528 <___chkstk_ms+0x28>
   14000250f:	48 81 e9 00 10 00 00 	sub    $0x1000,%rcx
   140002516:	48 83 09 00          	orq    $0x0,(%rcx)
   14000251a:	48 2d 00 10 00 00    	sub    $0x1000,%rax
   140002520:	48 3d 00 10 00 00    	cmp    $0x1000,%rax
   140002526:	77 e7                	ja     14000250f <___chkstk_ms+0xf>
   140002528:	48 29 c1             	sub    %rax,%rcx
   14000252b:	48 83 09 00          	orq    $0x0,(%rcx)
   14000252f:	58                   	pop    %rax
   140002530:	59                   	pop    %rcx
   140002531:	c3                   	ret
   140002532:	90                   	nop
   140002533:	90                   	nop
   140002534:	90                   	nop
   140002535:	90                   	nop
   140002536:	90                   	nop
   140002537:	90                   	nop
   140002538:	90                   	nop
   140002539:	90                   	nop
   14000253a:	90                   	nop
   14000253b:	90                   	nop
   14000253c:	90                   	nop
   14000253d:	90                   	nop
   14000253e:	90                   	nop
   14000253f:	90                   	nop

0000000140002540 <vfprintf>:
   140002540:	48 83 ec 38          	sub    $0x38,%rsp
   140002544:	45 31 c9             	xor    %r9d,%r9d
   140002547:	4c 89 44 24 20       	mov    %r8,0x20(%rsp)
   14000254c:	49 89 d0             	mov    %rdx,%r8
   14000254f:	48 89 ca             	mov    %rcx,%rdx
   140002552:	31 c9                	xor    %ecx,%ecx
   140002554:	e8 af 02 00 00       	call   140002808 <__stdio_common_vfprintf>
   140002559:	48 83 c4 38          	add    $0x38,%rsp
   14000255d:	c3                   	ret
   14000255e:	90                   	nop
   14000255f:	90                   	nop

0000000140002560 <fprintf>:
   140002560:	48 83 ec 48          	sub    $0x48,%rsp
   140002564:	48 8d 44 24 60       	lea    0x60(%rsp),%rax
   140002569:	4c 89 44 24 60       	mov    %r8,0x60(%rsp)
   14000256e:	49 89 d0             	mov    %rdx,%r8
   140002571:	48 89 ca             	mov    %rcx,%rdx
   140002574:	48 89 44 24 20       	mov    %rax,0x20(%rsp)
   140002579:	31 c9                	xor    %ecx,%ecx
   14000257b:	4c 89 4c 24 68       	mov    %r9,0x68(%rsp)
   140002580:	45 31 c9             	xor    %r9d,%r9d
   140002583:	48 89 44 24 38       	mov    %rax,0x38(%rsp)
   140002588:	e8 7b 02 00 00       	call   140002808 <__stdio_common_vfprintf>
   14000258d:	48 83 c4 48          	add    $0x48,%rsp
   140002591:	c3                   	ret
   140002592:	90                   	nop
   140002593:	90                   	nop
   140002594:	90                   	nop
   140002595:	90                   	nop
   140002596:	90                   	nop
   140002597:	90                   	nop
   140002598:	90                   	nop
   140002599:	90                   	nop
   14000259a:	90                   	nop
   14000259b:	90                   	nop
   14000259c:	90                   	nop
   14000259d:	90                   	nop
   14000259e:	90                   	nop
   14000259f:	90                   	nop

00000001400025a0 <_get_output_format>:
   1400025a0:	31 c0                	xor    %eax,%eax
   1400025a2:	c3                   	ret
   1400025a3:	66 66 2e 0f 1f 84 00 	data16 cs nopw 0x0(%rax,%rax,1)
   1400025aa:	00 00 00 00 
   1400025ae:	66 90                	xchg   %ax,%ax

00000001400025b0 <__getmainargs>:
   1400025b0:	41 54                	push   %r12
   1400025b2:	55                   	push   %rbp
   1400025b3:	57                   	push   %rdi
   1400025b4:	56                   	push   %rsi
   1400025b5:	53                   	push   %rbx
   1400025b6:	48 83 ec 20          	sub    $0x20,%rsp
   1400025ba:	4c 8b 64 24 70       	mov    0x70(%rsp),%r12
   1400025bf:	44 89 cd             	mov    %r9d,%ebp
   1400025c2:	48 89 d6             	mov    %rdx,%rsi
   1400025c5:	4c 89 c3             	mov    %r8,%rbx
   1400025c8:	48 89 cf             	mov    %rcx,%rdi
   1400025cb:	e8 a8 02 00 00       	call   140002878 <_initialize_narrow_environment>
   1400025d0:	83 fd 01             	cmp    $0x1,%ebp
   1400025d3:	b9 01 00 00 00       	mov    $0x1,%ecx
   1400025d8:	83 d9 ff             	sbb    $0xffffffff,%ecx
   1400025db:	e8 70 02 00 00       	call   140002850 <_configure_narrow_argv>
   1400025e0:	e8 4b 02 00 00       	call   140002830 <__p___argc>
   1400025e5:	8b 00                	mov    (%rax),%eax
   1400025e7:	89 07                	mov    %eax,(%rdi)
   1400025e9:	e8 4a 02 00 00       	call   140002838 <__p___argv>
   1400025ee:	48 8b 00             	mov    (%rax),%rax
   1400025f1:	48 89 06             	mov    %rax,(%rsi)
   1400025f4:	e8 07 03 00 00       	call   140002900 <__p__environ>
   1400025f9:	48 8b 00             	mov    (%rax),%rax
   1400025fc:	48 89 03             	mov    %rax,(%rbx)
   1400025ff:	4d 85 e4             	test   %r12,%r12
   140002602:	74 09                	je     14000260d <__getmainargs+0x5d>
   140002604:	41 8b 0c 24          	mov    (%r12),%ecx
   140002608:	e8 d3 02 00 00       	call   1400028e0 <_set_new_mode>
   14000260d:	31 c0                	xor    %eax,%eax
   14000260f:	48 83 c4 20          	add    $0x20,%rsp
   140002613:	5b                   	pop    %rbx
   140002614:	5e                   	pop    %rsi
   140002615:	5f                   	pop    %rdi
   140002616:	5d                   	pop    %rbp
   140002617:	41 5c                	pop    %r12
   140002619:	c3                   	ret
   14000261a:	66 0f 1f 44 00 00    	nopw   0x0(%rax,%rax,1)

0000000140002620 <__wgetmainargs>:
   140002620:	41 54                	push   %r12
   140002622:	55                   	push   %rbp
   140002623:	57                   	push   %rdi
   140002624:	56                   	push   %rsi
   140002625:	53                   	push   %rbx
   140002626:	48 83 ec 20          	sub    $0x20,%rsp
   14000262a:	4c 8b 64 24 70       	mov    0x70(%rsp),%r12
   14000262f:	44 89 cd             	mov    %r9d,%ebp
   140002632:	48 89 d6             	mov    %rdx,%rsi
   140002635:	4c 89 c3             	mov    %r8,%rbx
   140002638:	48 89 cf             	mov    %rcx,%rdi
   14000263b:	e8 40 02 00 00       	call   140002880 <_initialize_wide_environment>
   140002640:	83 fd 01             	cmp    $0x1,%ebp
   140002643:	b9 01 00 00 00       	mov    $0x1,%ecx
   140002648:	83 d9 ff             	sbb    $0xffffffff,%ecx
   14000264b:	e8 08 02 00 00       	call   140002858 <_configure_wide_argv>
   140002650:	e8 db 01 00 00       	call   140002830 <__p___argc>
   140002655:	8b 00                	mov    (%rax),%eax
   140002657:	89 07                	mov    %eax,(%rdi)
   140002659:	e8 e2 01 00 00       	call   140002840 <__p___wargv>
   14000265e:	48 8b 00             	mov    (%rax),%rax
   140002661:	48 89 06             	mov    %rax,(%rsi)
   140002664:	e8 9f 02 00 00       	call   140002908 <__p__wenviron>
   140002669:	48 8b 00             	mov    (%rax),%rax
   14000266c:	48 89 03             	mov    %rax,(%rbx)
   14000266f:	4d 85 e4             	test   %r12,%r12
   140002672:	74 09                	je     14000267d <__wgetmainargs+0x5d>
   140002674:	41 8b 0c 24          	mov    (%r12),%ecx
   140002678:	e8 63 02 00 00       	call   1400028e0 <_set_new_mode>
   14000267d:	31 c0                	xor    %eax,%eax
   14000267f:	48 83 c4 20          	add    $0x20,%rsp
   140002683:	5b                   	pop    %rbx
   140002684:	5e                   	pop    %rsi
   140002685:	5f                   	pop    %rdi
   140002686:	5d                   	pop    %rbp
   140002687:	41 5c                	pop    %r12
   140002689:	c3                   	ret
   14000268a:	66 0f 1f 44 00 00    	nopw   0x0(%rax,%rax,1)

0000000140002690 <_onexit>:
   140002690:	53                   	push   %rbx
   140002691:	48 83 ec 20          	sub    $0x20,%rsp
   140002695:	48 89 cb             	mov    %rcx,%rbx
   140002698:	e8 cb 01 00 00       	call   140002868 <_crt_atexit>
   14000269d:	85 c0                	test   %eax,%eax
   14000269f:	b8 00 00 00 00       	mov    $0x0,%eax
   1400026a4:	48 0f 44 c3          	cmove  %rbx,%rax
   1400026a8:	48 83 c4 20          	add    $0x20,%rsp
   1400026ac:	5b                   	pop    %rbx
   1400026ad:	c3                   	ret
   1400026ae:	66 90                	xchg   %ax,%ax

00000001400026b0 <at_quick_exit>:
   1400026b0:	48 8b 05 89 1d 00 00 	mov    0x1d89(%rip),%rax        # 140004440 <.refptr.__mingw_module_is_dll>
   1400026b7:	80 38 00             	cmpb   $0x0,(%rax)
   1400026ba:	74 04                	je     1400026c0 <at_quick_exit+0x10>
   1400026bc:	31 c0                	xor    %eax,%eax
   1400026be:	c3                   	ret
   1400026bf:	90                   	nop
   1400026c0:	e9 9b 01 00 00       	jmp    140002860 <_crt_at_quick_exit>
   1400026c5:	66 66 2e 0f 1f 84 00 	data16 cs nopw 0x0(%rax,%rax,1)
   1400026cc:	00 00 00 00 

00000001400026d0 <_amsg_exit>:
   1400026d0:	53                   	push   %rbx
   1400026d1:	48 83 ec 20          	sub    $0x20,%rsp
   1400026d5:	89 cb                	mov    %ecx,%ebx
   1400026d7:	b9 02 00 00 00       	mov    $0x2,%ecx
   1400026dc:	e8 0f 01 00 00       	call   1400027f0 <__acrt_iob_func>
   1400026e1:	41 89 d8             	mov    %ebx,%r8d
   1400026e4:	48 8d 15 65 1c 00 00 	lea    0x1c65(%rip),%rdx        # 140004350 <.rdata>
   1400026eb:	48 89 c1             	mov    %rax,%rcx
   1400026ee:	e8 6d fe ff ff       	call   140002560 <fprintf>
   1400026f3:	b9 ff 00 00 00       	mov    $0xff,%ecx
   1400026f8:	e8 73 01 00 00       	call   140002870 <_exit>
   1400026fd:	90                   	nop
   1400026fe:	66 90                	xchg   %ax,%ax

0000000140002700 <__ms_fwprintf>:
   140002700:	48 83 ec 48          	sub    $0x48,%rsp
   140002704:	48 8d 44 24 60       	lea    0x60(%rsp),%rax
   140002709:	4c 89 44 24 60       	mov    %r8,0x60(%rsp)
   14000270e:	49 89 d0             	mov    %rdx,%r8
   140002711:	48 89 ca             	mov    %rcx,%rdx
   140002714:	48 89 44 24 20       	mov    %rax,0x20(%rsp)
   140002719:	b9 04 00 00 00       	mov    $0x4,%ecx
   14000271e:	4c 89 4c 24 68       	mov    %r9,0x68(%rsp)
   140002723:	45 31 c9             	xor    %r9d,%r9d
   140002726:	48 89 44 24 38       	mov    %rax,0x38(%rsp)
   14000272b:	e8 e0 00 00 00       	call   140002810 <__stdio_common_vfwprintf>
   140002730:	48 83 c4 48          	add    $0x48,%rsp
   140002734:	c3                   	ret
   140002735:	66 66 2e 0f 1f 84 00 	data16 cs nopw 0x0(%rax,%rax,1)
   14000273c:	00 00 00 00 

0000000140002740 <tzset>:
   140002740:	48 83 ec 28          	sub    $0x28,%rsp
   140002744:	48 8b 05 a5 1c 00 00 	mov    0x1ca5(%rip),%rax        # 1400043f0 <.refptr.__imp__tzset>
   14000274b:	ff 10                	call   *(%rax)
   14000274d:	e8 7e 00 00 00       	call   1400027d0 <__tzname>
   140002752:	48 89 05 67 09 00 00 	mov    %rax,0x967(%rip)        # 1400030c0 <__imp_tzname>
   140002759:	e8 6a 00 00 00       	call   1400027c8 <__timezone>
   14000275e:	48 89 05 53 09 00 00 	mov    %rax,0x953(%rip)        # 1400030b8 <__imp_timezone>
   140002765:	e8 56 00 00 00       	call   1400027c0 <__daylight>
   14000276a:	48 89 05 3f 09 00 00 	mov    %rax,0x93f(%rip)        # 1400030b0 <__imp_daylight>
   140002771:	48 83 c4 28          	add    $0x28,%rsp
   140002775:	c3                   	ret
   140002776:	66 2e 0f 1f 84 00 00 	cs nopw 0x0(%rax,%rax,1)
   14000277d:	00 00 00 

0000000140002780 <_tzset>:
   140002780:	48 83 ec 28          	sub    $0x28,%rsp
   140002784:	48 8b 05 65 1c 00 00 	mov    0x1c65(%rip),%rax        # 1400043f0 <.refptr.__imp__tzset>
   14000278b:	ff 10                	call   *(%rax)
   14000278d:	e8 3e 00 00 00       	call   1400027d0 <__tzname>
   140002792:	48 89 05 27 09 00 00 	mov    %rax,0x927(%rip)        # 1400030c0 <__imp_tzname>
   140002799:	e8 2a 00 00 00       	call   1400027c8 <__timezone>
   14000279e:	48 89 05 13 09 00 00 	mov    %rax,0x913(%rip)        # 1400030b8 <__imp_timezone>
   1400027a5:	e8 16 00 00 00       	call   1400027c0 <__daylight>
   1400027aa:	48 89 05 ff 08 00 00 	mov    %rax,0x8ff(%rip)        # 1400030b0 <__imp_daylight>
   1400027b1:	48 83 c4 28          	add    $0x28,%rsp
   1400027b5:	c3                   	ret
   1400027b6:	90                   	nop
   1400027b7:	90                   	nop
   1400027b8:	90                   	nop
   1400027b9:	90                   	nop
   1400027ba:	90                   	nop
   1400027bb:	90                   	nop
   1400027bc:	90                   	nop
   1400027bd:	90                   	nop
   1400027be:	90                   	nop
   1400027bf:	90                   	nop

00000001400027c0 <__daylight>:
   1400027c0:	ff 25 7a 5c 00 00    	jmp    *0x5c7a(%rip)        # 140008440 <__imp___daylight>
   1400027c6:	90                   	nop
   1400027c7:	90                   	nop

00000001400027c8 <__timezone>:
   1400027c8:	ff 25 7a 5c 00 00    	jmp    *0x5c7a(%rip)        # 140008448 <__imp___timezone>
   1400027ce:	90                   	nop
   1400027cf:	90                   	nop

00000001400027d0 <__tzname>:
   1400027d0:	ff 25 7a 5c 00 00    	jmp    *0x5c7a(%rip)        # 140008450 <__imp___tzname>
   1400027d6:	90                   	nop
   1400027d7:	90                   	nop

00000001400027d8 <.text>:
   1400027d8:	0f 1f 84 00 00 00 00 	nopl   0x0(%rax,%rax,1)
   1400027df:	00 

00000001400027e0 <strlen>:
   1400027e0:	ff 25 42 5c 00 00    	jmp    *0x5c42(%rip)        # 140008428 <__imp_strlen>
   1400027e6:	90                   	nop
   1400027e7:	90                   	nop

00000001400027e8 <strncmp>:
   1400027e8:	ff 25 42 5c 00 00    	jmp    *0x5c42(%rip)        # 140008430 <__imp_strncmp>
   1400027ee:	90                   	nop
   1400027ef:	90                   	nop

00000001400027f0 <__acrt_iob_func>:
   1400027f0:	ff 25 f2 5b 00 00    	jmp    *0x5bf2(%rip)        # 1400083e8 <__imp___acrt_iob_func>
   1400027f6:	90                   	nop
   1400027f7:	90                   	nop

00000001400027f8 <__p__commode>:
   1400027f8:	ff 25 f2 5b 00 00    	jmp    *0x5bf2(%rip)        # 1400083f0 <__imp___p__commode>
   1400027fe:	90                   	nop
   1400027ff:	90                   	nop

0000000140002800 <__p__fmode>:
   140002800:	ff 25 f2 5b 00 00    	jmp    *0x5bf2(%rip)        # 1400083f8 <__imp___p__fmode>
   140002806:	90                   	nop
   140002807:	90                   	nop

0000000140002808 <__stdio_common_vfprintf>:
   140002808:	ff 25 f2 5b 00 00    	jmp    *0x5bf2(%rip)        # 140008400 <__imp___stdio_common_vfprintf>
   14000280e:	90                   	nop
   14000280f:	90                   	nop

0000000140002810 <__stdio_common_vfwprintf>:
   140002810:	ff 25 f2 5b 00 00    	jmp    *0x5bf2(%rip)        # 140008408 <__imp___stdio_common_vfwprintf>
   140002816:	90                   	nop
   140002817:	90                   	nop

0000000140002818 <fwrite>:
   140002818:	ff 25 f2 5b 00 00    	jmp    *0x5bf2(%rip)        # 140008410 <__imp_fwrite>
   14000281e:	90                   	nop
   14000281f:	90                   	nop

0000000140002820 <puts>:
   140002820:	ff 25 f2 5b 00 00    	jmp    *0x5bf2(%rip)        # 140008418 <__imp_puts>
   140002826:	90                   	nop
   140002827:	90                   	nop
   140002828:	0f 1f 84 00 00 00 00 	nopl   0x0(%rax,%rax,1)
   14000282f:	00 

0000000140002830 <__p___argc>:
   140002830:	ff 25 22 5b 00 00    	jmp    *0x5b22(%rip)        # 140008358 <__imp___p___argc>
   140002836:	90                   	nop
   140002837:	90                   	nop

0000000140002838 <__p___argv>:
   140002838:	ff 25 22 5b 00 00    	jmp    *0x5b22(%rip)        # 140008360 <__imp___p___argv>
   14000283e:	90                   	nop
   14000283f:	90                   	nop

0000000140002840 <__p___wargv>:
   140002840:	ff 25 22 5b 00 00    	jmp    *0x5b22(%rip)        # 140008368 <__imp___p___wargv>
   140002846:	90                   	nop
   140002847:	90                   	nop

0000000140002848 <_cexit>:
   140002848:	ff 25 22 5b 00 00    	jmp    *0x5b22(%rip)        # 140008370 <__imp__cexit>
   14000284e:	90                   	nop
   14000284f:	90                   	nop

0000000140002850 <_configure_narrow_argv>:
   140002850:	ff 25 22 5b 00 00    	jmp    *0x5b22(%rip)        # 140008378 <__imp__configure_narrow_argv>
   140002856:	90                   	nop
   140002857:	90                   	nop

0000000140002858 <_configure_wide_argv>:
   140002858:	ff 25 22 5b 00 00    	jmp    *0x5b22(%rip)        # 140008380 <__imp__configure_wide_argv>
   14000285e:	90                   	nop
   14000285f:	90                   	nop

0000000140002860 <_crt_at_quick_exit>:
   140002860:	ff 25 22 5b 00 00    	jmp    *0x5b22(%rip)        # 140008388 <__imp__crt_at_quick_exit>
   140002866:	90                   	nop
   140002867:	90                   	nop

0000000140002868 <_crt_atexit>:
   140002868:	ff 25 22 5b 00 00    	jmp    *0x5b22(%rip)        # 140008390 <__imp__crt_atexit>
   14000286e:	90                   	nop
   14000286f:	90                   	nop

0000000140002870 <_exit>:
   140002870:	ff 25 22 5b 00 00    	jmp    *0x5b22(%rip)        # 140008398 <__imp__exit>
   140002876:	90                   	nop
   140002877:	90                   	nop

0000000140002878 <_initialize_narrow_environment>:
   140002878:	ff 25 22 5b 00 00    	jmp    *0x5b22(%rip)        # 1400083a0 <__imp__initialize_narrow_environment>
   14000287e:	90                   	nop
   14000287f:	90                   	nop

0000000140002880 <_initialize_wide_environment>:
   140002880:	ff 25 22 5b 00 00    	jmp    *0x5b22(%rip)        # 1400083a8 <__imp__initialize_wide_environment>
   140002886:	90                   	nop
   140002887:	90                   	nop

0000000140002888 <_initterm>:
   140002888:	ff 25 22 5b 00 00    	jmp    *0x5b22(%rip)        # 1400083b0 <__imp__initterm>
   14000288e:	90                   	nop
   14000288f:	90                   	nop

0000000140002890 <__set_app_type>:
   140002890:	ff 25 22 5b 00 00    	jmp    *0x5b22(%rip)        # 1400083b8 <__imp___set_app_type>
   140002896:	90                   	nop
   140002897:	90                   	nop

0000000140002898 <_set_invalid_parameter_handler>:
   140002898:	ff 25 22 5b 00 00    	jmp    *0x5b22(%rip)        # 1400083c0 <__imp__set_invalid_parameter_handler>
   14000289e:	90                   	nop
   14000289f:	90                   	nop

00000001400028a0 <abort>:
   1400028a0:	ff 25 22 5b 00 00    	jmp    *0x5b22(%rip)        # 1400083c8 <__imp_abort>
   1400028a6:	90                   	nop
   1400028a7:	90                   	nop

00000001400028a8 <exit>:
   1400028a8:	ff 25 22 5b 00 00    	jmp    *0x5b22(%rip)        # 1400083d0 <__imp_exit>
   1400028ae:	90                   	nop
   1400028af:	90                   	nop

00000001400028b0 <signal>:
   1400028b0:	ff 25 22 5b 00 00    	jmp    *0x5b22(%rip)        # 1400083d8 <__imp_signal>
   1400028b6:	90                   	nop
   1400028b7:	90                   	nop
   1400028b8:	0f 1f 84 00 00 00 00 	nopl   0x0(%rax,%rax,1)
   1400028bf:	00 

00000001400028c0 <__C_specific_handler>:
   1400028c0:	ff 25 7a 5a 00 00    	jmp    *0x5a7a(%rip)        # 140008340 <__imp___C_specific_handler>
   1400028c6:	90                   	nop
   1400028c7:	90                   	nop

00000001400028c8 <memcpy>:
   1400028c8:	ff 25 7a 5a 00 00    	jmp    *0x5a7a(%rip)        # 140008348 <__imp_memcpy>
   1400028ce:	90                   	nop
   1400028cf:	90                   	nop

00000001400028d0 <__setusermatherr>:
   1400028d0:	ff 25 5a 5a 00 00    	jmp    *0x5a5a(%rip)        # 140008330 <__imp___setusermatherr>
   1400028d6:	90                   	nop
   1400028d7:	90                   	nop
   1400028d8:	0f 1f 84 00 00 00 00 	nopl   0x0(%rax,%rax,1)
   1400028df:	00 

00000001400028e0 <_set_new_mode>:
   1400028e0:	ff 25 22 5a 00 00    	jmp    *0x5a22(%rip)        # 140008308 <__imp__set_new_mode>
   1400028e6:	90                   	nop
   1400028e7:	90                   	nop

00000001400028e8 <calloc>:
   1400028e8:	ff 25 22 5a 00 00    	jmp    *0x5a22(%rip)        # 140008310 <__imp_calloc>
   1400028ee:	90                   	nop
   1400028ef:	90                   	nop

00000001400028f0 <free>:
   1400028f0:	ff 25 22 5a 00 00    	jmp    *0x5a22(%rip)        # 140008318 <__imp_free>
   1400028f6:	90                   	nop
   1400028f7:	90                   	nop

00000001400028f8 <malloc>:
   1400028f8:	ff 25 22 5a 00 00    	jmp    *0x5a22(%rip)        # 140008320 <__imp_malloc>
   1400028fe:	90                   	nop
   1400028ff:	90                   	nop

0000000140002900 <__p__environ>:
   140002900:	ff 25 ea 59 00 00    	jmp    *0x59ea(%rip)        # 1400082f0 <__imp___p__environ>
   140002906:	90                   	nop
   140002907:	90                   	nop

0000000140002908 <__p__wenviron>:
   140002908:	ff 25 ea 59 00 00    	jmp    *0x59ea(%rip)        # 1400082f8 <__imp___p__wenviron>
   14000290e:	90                   	nop
   14000290f:	90                   	nop

0000000140002910 <VirtualQuery>:
   140002910:	ff 25 ca 59 00 00    	jmp    *0x59ca(%rip)        # 1400082e0 <__imp_VirtualQuery>
   140002916:	90                   	nop
   140002917:	90                   	nop

0000000140002918 <VirtualProtect>:
   140002918:	ff 25 ba 59 00 00    	jmp    *0x59ba(%rip)        # 1400082d8 <__imp_VirtualProtect>
   14000291e:	90                   	nop
   14000291f:	90                   	nop

0000000140002920 <TlsGetValue>:
   140002920:	ff 25 aa 59 00 00    	jmp    *0x59aa(%rip)        # 1400082d0 <__imp_TlsGetValue>
   140002926:	90                   	nop
   140002927:	90                   	nop

0000000140002928 <Sleep>:
   140002928:	ff 25 9a 59 00 00    	jmp    *0x599a(%rip)        # 1400082c8 <__imp_Sleep>
   14000292e:	90                   	nop
   14000292f:	90                   	nop

0000000140002930 <SetUnhandledExceptionFilter>:
   140002930:	ff 25 8a 59 00 00    	jmp    *0x598a(%rip)        # 1400082c0 <__imp_SetUnhandledExceptionFilter>
   140002936:	90                   	nop
   140002937:	90                   	nop

0000000140002938 <LeaveCriticalSection>:
   140002938:	ff 25 7a 59 00 00    	jmp    *0x597a(%rip)        # 1400082b8 <__imp_LeaveCriticalSection>
   14000293e:	90                   	nop
   14000293f:	90                   	nop

0000000140002940 <InitializeCriticalSection>:
   140002940:	ff 25 6a 59 00 00    	jmp    *0x596a(%rip)        # 1400082b0 <__imp_InitializeCriticalSection>
   140002946:	90                   	nop
   140002947:	90                   	nop

0000000140002948 <GetLastError>:
   140002948:	ff 25 5a 59 00 00    	jmp    *0x595a(%rip)        # 1400082a8 <__imp_GetLastError>
   14000294e:	90                   	nop
   14000294f:	90                   	nop

0000000140002950 <EnterCriticalSection>:
   140002950:	ff 25 4a 59 00 00    	jmp    *0x594a(%rip)        # 1400082a0 <__imp_EnterCriticalSection>
   140002956:	90                   	nop
   140002957:	90                   	nop

0000000140002958 <DeleteCriticalSection>:
   140002958:	ff 25 3a 59 00 00    	jmp    *0x593a(%rip)        # 140008298 <__IAT_start__>
   14000295e:	90                   	nop
   14000295f:	90                   	nop

0000000140002960 <register_frame_ctor>:
   140002960:	e9 cb ea ff ff       	jmp    140001430 <__gcc_register_frame>
   140002965:	90                   	nop
   140002966:	90                   	nop
   140002967:	90                   	nop
   140002968:	90                   	nop
   140002969:	90                   	nop
   14000296a:	90                   	nop
   14000296b:	90                   	nop
   14000296c:	90                   	nop
   14000296d:	90                   	nop
   14000296e:	90                   	nop
   14000296f:	90                   	nop

0000000140002970 <__CTOR_LIST__>:
   140002970:	ff                   	(bad)
   140002971:	ff                   	(bad)
   140002972:	ff                   	(bad)
   140002973:	ff                   	(bad)
   140002974:	ff                   	(bad)
   140002975:	ff                   	(bad)
   140002976:	ff                   	(bad)
   140002977:	ff               	jmp    *0x29(%rax)

0000000140002978 <.ctors.65535>:
   140002978:	60                   	(bad)
   140002979:	29 00                	sub    %eax,(%rax)
   14000297b:	40 01 00             	rex add %eax,(%rax)
	...

0000000140002988 <__DTOR_LIST__>:
   140002988:	ff                   	(bad)
   140002989:	ff                   	(bad)
   14000298a:	ff                   	(bad)
   14000298b:	ff                   	(bad)
   14000298c:	ff                   	(bad)
   14000298d:	ff                   	(bad)
   14000298e:	ff                   	(bad)
   14000298f:	ff 00                	incl   (%rax)
   140002991:	00 00                	add    %al,(%rax)
   140002993:	00 00                	add    %al,(%rax)
   140002995:	00 00                	add    %al,(%rax)
	...

Disassembly of section .rdata:

0000000140004000 <.rdata>:
   140004000:	48                   	rex.W
   140004001:	65 6c                	gs insb (%dx),%es:(%rdi)
   140004003:	6c                   	insb   (%dx),%es:(%rdi)
   140004004:	6f                   	outsl  %ds:(%rsi),(%dx)
   140004005:	20 77 6f             	and    %dh,0x6f(%rdi)
   140004008:	72 6c                	jb     140004076 <_tls_used+0x36>
   14000400a:	64 00 00             	add    %al,%fs:(%rax)
	...

0000000140004020 <__dyn_tls_init_callback>:
   140004020:	90                   	nop
   140004021:	15 00 40 01 00       	adc    $0x14000,%eax
	...

0000000140004040 <_tls_used>:
   140004040:	00 a0 00 40 01 00    	add    %ah,0x14000(%rax)
   140004046:	00 00                	add    %al,(%rax)
   140004048:	08 a0 00 40 01 00    	or     %ah,0x14000(%rax)
   14000404e:	00 00                	add    %al,(%rax)
   140004050:	6c                   	insb   (%dx),%es:(%rdi)
   140004051:	70 00                	jo     140004053 <_tls_used+0x13>
   140004053:	40 01 00             	rex add %eax,(%rax)
   140004056:	00 00                	add    %al,(%rax)
   140004058:	38 90 00 40 01 00    	cmp    %dl,0x14000(%rax)
	...

0000000140004080 <.rdata>:
   140004080:	41 72 67             	rex.B jb 1400040ea <.rdata+0x6a>
   140004083:	75 6d                	jne    1400040f2 <.rdata+0x72>
   140004085:	65 6e                	outsb  %gs:(%rsi),(%dx)
   140004087:	74 20                	je     1400040a9 <.rdata+0x29>
   140004089:	64 6f                	outsl  %fs:(%rsi),(%dx)
   14000408b:	6d                   	insl   (%dx),%es:(%rdi)
   14000408c:	61                   	(bad)
   14000408d:	69 6e 20 65 72 72 6f 	imul   $0x6f727265,0x20(%rsi),%ebp
   140004094:	72 20                	jb     1400040b6 <.rdata+0x36>
   140004096:	28 44 4f 4d          	sub    %al,0x4d(%rdi,%rcx,2)
   14000409a:	41                   	rex.B
   14000409b:	49                   	rex.WB
   14000409c:	4e 29 00             	rex.WRX sub %r8,(%rax)
   14000409f:	41 72 67             	rex.B jb 140004109 <.rdata+0x89>
   1400040a2:	75 6d                	jne    140004111 <.rdata+0x91>
   1400040a4:	65 6e                	outsb  %gs:(%rsi),(%dx)
   1400040a6:	74 20                	je     1400040c8 <.rdata+0x48>
   1400040a8:	73 69                	jae    140004113 <.rdata+0x93>
   1400040aa:	6e                   	outsb  %ds:(%rsi),(%dx)
   1400040ab:	67 75 6c             	addr32 jne 14000411a <.rdata+0x9a>
   1400040ae:	61                   	(bad)
   1400040af:	72 69                	jb     14000411a <.rdata+0x9a>
   1400040b1:	74 79                	je     14000412c <.rdata+0xac>
   1400040b3:	20 28                	and    %ch,(%rax)
   1400040b5:	53                   	push   %rbx
   1400040b6:	49                   	rex.WB
   1400040b7:	47                   	rex.RXB
   1400040b8:	4e 29 00             	rex.WRX sub %r8,(%rax)
   1400040bb:	00 00                	add    %al,(%rax)
   1400040bd:	00 00                	add    %al,(%rax)
   1400040bf:	00 4f 76             	add    %cl,0x76(%rdi)
   1400040c2:	65 72 66             	gs jb  14000412b <.rdata+0xab>
   1400040c5:	6c                   	insb   (%dx),%es:(%rdi)
   1400040c6:	6f                   	outsl  %ds:(%rsi),(%dx)
   1400040c7:	77 20                	ja     1400040e9 <.rdata+0x69>
   1400040c9:	72 61                	jb     14000412c <.rdata+0xac>
   1400040cb:	6e                   	outsb  %ds:(%rsi),(%dx)
   1400040cc:	67 65 20 65 72       	and    %ah,%gs:0x72(%ebp)
   1400040d1:	72 6f                	jb     140004142 <.rdata+0xc2>
   1400040d3:	72 20                	jb     1400040f5 <.rdata+0x75>
   1400040d5:	28 4f 56             	sub    %cl,0x56(%rdi)
   1400040d8:	45 52                	rex.RB push %r10
   1400040da:	46                   	rex.RX
   1400040db:	4c                   	rex.WR
   1400040dc:	4f 57                	rex.WRXB push %r15
   1400040de:	29 00                	sub    %eax,(%rax)
   1400040e0:	50                   	push   %rax
   1400040e1:	61                   	(bad)
   1400040e2:	72 74                	jb     140004158 <.rdata+0xd8>
   1400040e4:	69 61 6c 20 6c 6f 73 	imul   $0x736f6c20,0x6c(%rcx),%esp
   1400040eb:	73 20                	jae    14000410d <.rdata+0x8d>
   1400040ed:	6f                   	outsl  %ds:(%rsi),(%dx)
   1400040ee:	66 20 73 69          	data16 and %dh,0x69(%rbx)
   1400040f2:	67 6e                	outsb  %ds:(%esi),(%dx)
   1400040f4:	69 66 69 63 61 6e 63 	imul   $0x636e6163,0x69(%rsi),%esp
   1400040fb:	65 20 28             	and    %ch,%gs:(%rax)
   1400040fe:	50                   	push   %rax
   1400040ff:	4c                   	rex.WR
   140004100:	4f 53                	rex.WRXB push %r11
   140004102:	53                   	push   %rbx
   140004103:	29 00                	sub    %eax,(%rax)
   140004105:	00 00                	add    %al,(%rax)
   140004107:	00 54 6f 74          	add    %dl,0x74(%rdi,%rbp,2)
   14000410b:	61                   	(bad)
   14000410c:	6c                   	insb   (%dx),%es:(%rdi)
   14000410d:	20 6c 6f 73          	and    %ch,0x73(%rdi,%rbp,2)
   140004111:	73 20                	jae    140004133 <.rdata+0xb3>
   140004113:	6f                   	outsl  %ds:(%rsi),(%dx)
   140004114:	66 20 73 69          	data16 and %dh,0x69(%rbx)
   140004118:	67 6e                	outsb  %ds:(%esi),(%dx)
   14000411a:	69 66 69 63 61 6e 63 	imul   $0x636e6163,0x69(%rsi),%esp
   140004121:	65 20 28             	and    %ch,%gs:(%rax)
   140004124:	54                   	push   %rsp
   140004125:	4c                   	rex.WR
   140004126:	4f 53                	rex.WRXB push %r11
   140004128:	53                   	push   %rbx
   140004129:	29 00                	sub    %eax,(%rax)
   14000412b:	00 00                	add    %al,(%rax)
   14000412d:	00 00                	add    %al,(%rax)
   14000412f:	00 54 68 65          	add    %dl,0x65(%rax,%rbp,2)
   140004133:	20 72 65             	and    %dh,0x65(%rdx)
   140004136:	73 75                	jae    1400041ad <.rdata+0x12d>
   140004138:	6c                   	insb   (%dx),%es:(%rdi)
   140004139:	74 20                	je     14000415b <.rdata+0xdb>
   14000413b:	69 73 20 74 6f 6f 20 	imul   $0x206f6f74,0x20(%rbx),%esi
   140004142:	73 6d                	jae    1400041b1 <.rdata+0x131>
   140004144:	61                   	(bad)
   140004145:	6c                   	insb   (%dx),%es:(%rdi)
   140004146:	6c                   	insb   (%dx),%es:(%rdi)
   140004147:	20 74 6f 20          	and    %dh,0x20(%rdi,%rbp,2)
   14000414b:	62 65                	(bad)
   14000414d:	20 72 65             	and    %dh,0x65(%rdx)
   140004150:	70 72                	jo     1400041c4 <.rdata+0x4>
   140004152:	65 73 65             	gs jae 1400041ba <.rdata+0x13a>
   140004155:	6e                   	outsb  %ds:(%rsi),(%dx)
   140004156:	74 65                	je     1400041bd <.rdata+0x13d>
   140004158:	64 20 28             	and    %ch,%fs:(%rax)
   14000415b:	55                   	push   %rbp
   14000415c:	4e                   	rex.WRX
   14000415d:	44                   	rex.R
   14000415e:	45 52                	rex.RB push %r10
   140004160:	46                   	rex.RX
   140004161:	4c                   	rex.WR
   140004162:	4f 57                	rex.WRXB push %r15
   140004164:	29 00                	sub    %eax,(%rax)
   140004166:	55                   	push   %rbp
   140004167:	6e                   	outsb  %ds:(%rsi),(%dx)
   140004168:	6b 6e 6f 77          	imul   $0x77,0x6f(%rsi),%ebp
   14000416c:	6e                   	outsb  %ds:(%rsi),(%dx)
   14000416d:	20 65 72             	and    %ah,0x72(%rbp)
   140004170:	72 6f                	jb     1400041e1 <.rdata+0x21>
   140004172:	72 00                	jb     140004174 <.rdata+0xf4>
   140004174:	00 00                	add    %al,(%rax)
   140004176:	00 00                	add    %al,(%rax)
   140004178:	5f                   	pop    %rdi
   140004179:	6d                   	insl   (%dx),%es:(%rdi)
   14000417a:	61                   	(bad)
   14000417b:	74 68                	je     1400041e5 <.rdata+0x25>
   14000417d:	65 72 72             	gs jb  1400041f2 <.rdata+0x32>
   140004180:	28 29                	sub    %ch,(%rcx)
   140004182:	3a 20                	cmp    (%rax),%ah
   140004184:	25 73 20 69 6e       	and    $0x6e692073,%eax
   140004189:	20 25 73 28 25 67    	and    %ah,0x67252873(%rip)        # 1a7256a02 <.debug_rnglists+0x67233938>
   14000418f:	2c 20                	sub    $0x20,%al
   140004191:	25 67 29 20 20       	and    $0x20202967,%eax
   140004196:	28 72 65             	sub    %dh,0x65(%rdx)
   140004199:	74 76                	je     140004211 <.rdata+0x51>
   14000419b:	61                   	(bad)
   14000419c:	6c                   	insb   (%dx),%es:(%rdi)
   14000419d:	3d 25 67 29 0a       	cmp    $0xa296725,%eax
   1400041a2:	00 00                	add    %al,(%rax)
   1400041a4:	78 d5                	js     14000417b <.rdata+0xfb>
   1400041a6:	ff                   	(bad)
   1400041a7:	ff 2c d5 ff ff c4 d4 	ljmp   *-0x2b3b0001(,%rdx,8)
   1400041ae:	ff                   	(bad)
   1400041af:	ff 4c d5 ff          	decl   -0x1(%rbp,%rdx,8)
   1400041b3:	ff 5c d5 ff          	lcall  *-0x1(%rbp,%rdx,8)
   1400041b7:	ff 6c d5 ff          	ljmp   *-0x1(%rbp,%rdx,8)
   1400041bb:	ff                   	(bad)
   1400041bc:	3c d5                	cmp    $0xd5,%al
   1400041be:	ff                   	(bad)
   1400041bf:	ff               	decl   0x69(%rbp)

00000001400041c0 <.rdata>:
   1400041c0:	4d 69 6e 67 77 2d 77 	imul   $0x36772d77,0x67(%r14),%r13
   1400041c7:	36 
   1400041c8:	34 20                	xor    $0x20,%al
   1400041ca:	72 75                	jb     140004241 <.rdata+0x81>
   1400041cc:	6e                   	outsb  %ds:(%rsi),(%dx)
   1400041cd:	74 69                	je     140004238 <.rdata+0x78>
   1400041cf:	6d                   	insl   (%dx),%es:(%rdi)
   1400041d0:	65 20 66 61          	and    %ah,%gs:0x61(%rsi)
   1400041d4:	69 6c 75 72 65 3a 0a 	imul   $0xa3a65,0x72(%rbp,%rsi,2),%ebp
   1400041db:	00 
   1400041dc:	00 00                	add    %al,(%rax)
   1400041de:	00 00                	add    %al,(%rax)
   1400041e0:	41                   	rex.B
   1400041e1:	64 64 72 65          	fs fs jb 14000424a <.rdata+0x8a>
   1400041e5:	73 73                	jae    14000425a <.rdata+0x9a>
   1400041e7:	20 25 70 20 68 61    	and    %ah,0x61682070(%rip)        # 1a168625d <.debug_rnglists+0x61663193>
   1400041ed:	73 20                	jae    14000420f <.rdata+0x4f>
   1400041ef:	6e                   	outsb  %ds:(%rsi),(%dx)
   1400041f0:	6f                   	outsl  %ds:(%rsi),(%dx)
   1400041f1:	20 69 6d             	and    %ch,0x6d(%rcx)
   1400041f4:	61                   	(bad)
   1400041f5:	67 65 2d 73 65 63 74 	addr32 gs sub $0x74636573,%eax
   1400041fc:	69 6f 6e 00 20 20 56 	imul   $0x56202000,0x6e(%rdi),%ebp
   140004203:	69 72 74 75 61 6c 51 	imul   $0x516c6175,0x74(%rdx),%esi
   14000420a:	75 65                	jne    140004271 <.rdata+0xb1>
   14000420c:	72 79                	jb     140004287 <.rdata+0xc7>
   14000420e:	20 66 61             	and    %ah,0x61(%rsi)
   140004211:	69 6c 65 64 20 66 6f 	imul   $0x726f6620,0x64(%rbp,%riz,2),%ebp
   140004218:	72 
   140004219:	20 25 64 20 62 79    	and    %ah,0x79622064(%rip)        # 1b9626283 <.debug_rnglists+0x796031b9>
   14000421f:	74 65                	je     140004286 <.rdata+0xc6>
   140004221:	73 20                	jae    140004243 <.rdata+0x83>
   140004223:	61                   	(bad)
   140004224:	74 20                	je     140004246 <.rdata+0x86>
   140004226:	61                   	(bad)
   140004227:	64 64 72 65          	fs fs jb 140004290 <.rdata+0xd0>
   14000422b:	73 73                	jae    1400042a0 <.rdata+0xe0>
   14000422d:	20 25 70 00 00 00    	and    %ah,0x70(%rip)        # 1400042a3 <.rdata+0xe3>
   140004233:	00 00                	add    %al,(%rax)
   140004235:	00 00                	add    %al,(%rax)
   140004237:	00 20                	add    %ah,(%rax)
   140004239:	20 56 69             	and    %dl,0x69(%rsi)
   14000423c:	72 74                	jb     1400042b2 <.rdata+0xf2>
   14000423e:	75 61                	jne    1400042a1 <.rdata+0xe1>
   140004240:	6c                   	insb   (%dx),%es:(%rdi)
   140004241:	50                   	push   %rax
   140004242:	72 6f                	jb     1400042b3 <.rdata+0xf3>
   140004244:	74 65                	je     1400042ab <.rdata+0xeb>
   140004246:	63 74 20 66          	movsxd 0x66(%rax,%riz,1),%esi
   14000424a:	61                   	(bad)
   14000424b:	69 6c 65 64 20 77 69 	imul   $0x74697720,0x64(%rbp,%riz,2),%ebp
   140004252:	74 
   140004253:	68 20 63 6f 64       	push   $0x646f6320
   140004258:	65 20 30             	and    %dh,%gs:(%rax)
   14000425b:	78 25                	js     140004282 <.rdata+0xc2>
   14000425d:	78 00                	js     14000425f <.rdata+0x9f>
   14000425f:	00 20                	add    %ah,(%rax)
   140004261:	20 55 6e             	and    %dl,0x6e(%rbp)
   140004264:	6b 6e 6f 77          	imul   $0x77,0x6f(%rsi),%ebp
   140004268:	6e                   	outsb  %ds:(%rsi),(%dx)
   140004269:	20 70 73             	and    %dh,0x73(%rax)
   14000426c:	65 75 64             	gs jne 1400042d3 <.rdata+0x113>
   14000426f:	6f                   	outsl  %ds:(%rsi),(%dx)
   140004270:	20 72 65             	and    %dh,0x65(%rdx)
   140004273:	6c                   	insb   (%dx),%es:(%rdi)
   140004274:	6f                   	outsl  %ds:(%rsi),(%dx)
   140004275:	63 61 74             	movsxd 0x74(%rcx),%esp
   140004278:	69 6f 6e 20 70 72 6f 	imul   $0x6f727020,0x6e(%rdi),%ebp
   14000427f:	74 6f                	je     1400042f0 <.rdata+0x130>
   140004281:	63 6f 6c             	movsxd 0x6c(%rdi),%ebp
   140004284:	20 76 65             	and    %dh,0x65(%rsi)
   140004287:	72 73                	jb     1400042fc <.rdata+0x13c>
   140004289:	69 6f 6e 20 25 64 2e 	imul   $0x2e642520,0x6e(%rdi),%ebp
   140004290:	0a 00                	or     (%rax),%al
   140004292:	00 00                	add    %al,(%rax)
   140004294:	00 00                	add    %al,(%rax)
   140004296:	00 00                	add    %al,(%rax)
   140004298:	20 20                	and    %ah,(%rax)
   14000429a:	55                   	push   %rbp
   14000429b:	6e                   	outsb  %ds:(%rsi),(%dx)
   14000429c:	6b 6e 6f 77          	imul   $0x77,0x6f(%rsi),%ebp
   1400042a0:	6e                   	outsb  %ds:(%rsi),(%dx)
   1400042a1:	20 70 73             	and    %dh,0x73(%rax)
   1400042a4:	65 75 64             	gs jne 14000430b <.rdata+0x14b>
   1400042a7:	6f                   	outsl  %ds:(%rsi),(%dx)
   1400042a8:	20 72 65             	and    %dh,0x65(%rdx)
   1400042ab:	6c                   	insb   (%dx),%es:(%rdi)
   1400042ac:	6f                   	outsl  %ds:(%rsi),(%dx)
   1400042ad:	63 61 74             	movsxd 0x74(%rcx),%esp
   1400042b0:	69 6f 6e 20 62 69 74 	imul   $0x74696220,0x6e(%rdi),%ebp
   1400042b7:	20 73 69             	and    %dh,0x69(%rbx)
   1400042ba:	7a 65                	jp     140004321 <.rdata+0x1>
   1400042bc:	20 25 64 2e 0a 00    	and    %ah,0xa2e64(%rip)        # 1400a7126 <.debug_rnglists+0x8405c>
   1400042c2:	00 00                	add    %al,(%rax)
   1400042c4:	00 00                	add    %al,(%rax)
   1400042c6:	00 00                	add    %al,(%rax)
   1400042c8:	25 64 20 62 69       	and    $0x69622064,%eax
   1400042cd:	74 20                	je     1400042ef <.rdata+0x12f>
   1400042cf:	70 73                	jo     140004344 <.rdata+0x24>
   1400042d1:	65 75 64             	gs jne 140004338 <.rdata+0x18>
   1400042d4:	6f                   	outsl  %ds:(%rsi),(%dx)
   1400042d5:	20 72 65             	and    %dh,0x65(%rdx)
   1400042d8:	6c                   	insb   (%dx),%es:(%rdi)
   1400042d9:	6f                   	outsl  %ds:(%rsi),(%dx)
   1400042da:	63 61 74             	movsxd 0x74(%rcx),%esp
   1400042dd:	69 6f 6e 20 61 74 20 	imul   $0x20746120,0x6e(%rdi),%ebp
   1400042e4:	25 70 20 6f 75       	and    $0x756f2070,%eax
   1400042e9:	74 20                	je     14000430b <.rdata+0x14b>
   1400042eb:	6f                   	outsl  %ds:(%rsi),(%dx)
   1400042ec:	66 20 72 61          	data16 and %dh,0x61(%rdx)
   1400042f0:	6e                   	outsb  %ds:(%rsi),(%dx)
   1400042f1:	67 65 2c 20          	addr32 gs sub $0x20,%al
   1400042f5:	74 61                	je     140004358 <.rdata+0x8>
   1400042f7:	72 67                	jb     140004360 <.rdata+0x10>
   1400042f9:	65 74 69             	gs je  140004365 <.rdata+0x15>
   1400042fc:	6e                   	outsb  %ds:(%rsi),(%dx)
   1400042fd:	67 20 25 70 2c 20 79 	and    %ah,0x79202c70(%eip)        # 1b9206f74 <.debug_rnglists+0x791e3eaa>
   140004304:	69 65 6c 64 69 6e 67 	imul   $0x676e6964,0x6c(%rbp),%esp
   14000430b:	20 74 68 65          	and    %dh,0x65(%rax,%rbp,2)
   14000430f:	20 76 61             	and    %dh,0x61(%rsi)
   140004312:	6c                   	insb   (%dx),%es:(%rdi)
   140004313:	75 65                	jne    14000437a <.refptr._CRT_MT+0xa>
   140004315:	20 25 70 2e 0a 00    	and    %ah,0xa2e70(%rip)        # 1400a718b <.debug_rnglists+0x840c1>
   14000431b:	00 00                	add    %al,(%rax)
   14000431d:	00 00                	add    %al,(%rax)
	...

0000000140004320 <.rdata>:
   140004320:	00 da                	add    %bl,%dl
   140004322:	ff                   	(bad)
   140004323:	ff 00                	incl   (%rax)
   140004325:	da ff                	(bad)
   140004327:	ff 00                	incl   (%rax)
   140004329:	da ff                	(bad)
   14000432b:	ff 00                	incl   (%rax)
   14000432d:	da ff                	(bad)
   14000432f:	ff 00                	incl   (%rax)
   140004331:	da ff                	(bad)
   140004333:	ff 80 da ff ff 00    	incl   0xffffda(%rax)
   140004339:	da ff                	(bad)
   14000433b:	ff c0                	inc    %eax
   14000433d:	da ff                	(bad)
   14000433f:	ff 80 da ff ff 5b    	incl   0x5bffffda(%rax)
   140004345:	da ff                	(bad)
   140004347:	ff 00                	incl   (%rax)
   140004349:	00 00                	add    %al,(%rax)
   14000434b:	00 00                	add    %al,(%rax)
   14000434d:	00 00                	add    %al,(%rax)
	...

0000000140004350 <.rdata>:
   140004350:	72 75                	jb     1400043c7 <.refptr.__RUNTIME_PSEUDO_RELOC_LIST__+0x7>
   140004352:	6e                   	outsb  %ds:(%rsi),(%dx)
   140004353:	74 69                	je     1400043be <.refptr.__RUNTIME_PSEUDO_RELOC_LIST_END__+0xe>
   140004355:	6d                   	insl   (%dx),%es:(%rdi)
   140004356:	65 20 65 72          	and    %ah,%gs:0x72(%rbp)
   14000435a:	72 6f                	jb     1400043cb <.refptr.__RUNTIME_PSEUDO_RELOC_LIST__+0xb>
   14000435c:	72 20                	jb     14000437e <.refptr._CRT_MT+0xe>
   14000435e:	25 64 0a 00 00       	and    $0xa64,%eax
	...

0000000140004370 <.refptr._CRT_MT>:
   140004370:	30 30                	xor    %dh,(%rax)
   140004372:	00 40 01             	add    %al,0x1(%rax)
	...

0000000140004380 <.refptr._MINGW_INSTALL_DEBUG_MATHERR>:
   140004380:	40 30 00             	rex xor %al,(%rax)
   140004383:	40 01 00             	rex add %eax,(%rax)
	...

0000000140004390 <.refptr.__CTOR_LIST__>:
   140004390:	70 29                	jo     1400043bb <.refptr.__RUNTIME_PSEUDO_RELOC_LIST_END__+0xb>
   140004392:	00 40 01             	add    %al,0x1(%rax)
	...

00000001400043a0 <.refptr.__ImageBase>:
   1400043a0:	00 00                	add    %al,(%rax)
   1400043a2:	00 40 01             	add    %al,0x1(%rax)
	...

00000001400043b0 <.refptr.__RUNTIME_PSEUDO_RELOC_LIST_END__>:
   1400043b0:	90                   	nop
   1400043b1:	4a 00 40 01          	rex.WX add %al,0x1(%rax)
	...

00000001400043c0 <.refptr.__RUNTIME_PSEUDO_RELOC_LIST__>:
   1400043c0:	90                   	nop
   1400043c1:	4a 00 40 01          	rex.WX add %al,0x1(%rax)
	...

00000001400043d0 <.refptr.__dyn_tls_init_callback>:
   1400043d0:	20 40 00             	and    %al,0x0(%rax)
   1400043d3:	40 01 00             	rex add %eax,(%rax)
	...

00000001400043e0 <.refptr.__imp___initenv>:
   1400043e0:	78 30                	js     140004412 <.refptr.__mingw_initltsdrot_force+0x2>
   1400043e2:	00 40 01             	add    %al,0x1(%rax)
	...

00000001400043f0 <.refptr.__imp__tzset>:
   1400043f0:	58                   	pop    %rax
   1400043f1:	84 00                	test   %al,(%rax)
   1400043f3:	40 01 00             	rex add %eax,(%rax)
	...

0000000140004400 <.refptr.__mingw_app_type>:
   140004400:	80 70 00 40          	xorb   $0x40,0x0(%rax)
   140004404:	01 00                	add    %eax,(%rax)
	...

0000000140004410 <.refptr.__mingw_initltsdrot_force>:
   140004410:	68 70 00 40 01       	push   $0x1400070
	...

0000000140004420 <.refptr.__mingw_initltsdyn_force>:
   140004420:	64 70 00             	fs jo  140004423 <.refptr.__mingw_initltsdyn_force+0x3>
   140004423:	40 01 00             	rex add %eax,(%rax)
	...

0000000140004430 <.refptr.__mingw_initltssuo_force>:
   140004430:	60                   	(bad)
   140004431:	70 00                	jo     140004433 <.refptr.__mingw_initltssuo_force+0x3>
   140004433:	40 01 00             	rex add %eax,(%rax)
	...

0000000140004440 <.refptr.__mingw_module_is_dll>:
   140004440:	00 70 00             	add    %dh,0x0(%rax)
   140004443:	40 01 00             	rex add %eax,(%rax)
	...

0000000140004450 <.refptr.__mingw_oldexcpt_handler>:
   140004450:	c0 70 00 40          	shlb   $0x40,0x0(%rax)
   140004454:	01 00                	add    %eax,(%rax)
	...

0000000140004460 <.refptr.__native_startup_lock>:
   140004460:	40 70 00             	rex jo 140004463 <.refptr.__native_startup_lock+0x3>
   140004463:	40 01 00             	rex add %eax,(%rax)
	...

0000000140004470 <.refptr.__native_startup_state>:
   140004470:	48 70 00             	rex.W jo 140004473 <.refptr.__native_startup_state+0x3>
   140004473:	40 01 00             	rex add %eax,(%rax)
	...

0000000140004480 <.refptr.__xc_a>:
   140004480:	00 90 00 40 01 00    	add    %dl,0x14000(%rax)
	...

0000000140004490 <.refptr.__xc_z>:
   140004490:	10 90 00 40 01 00    	adc    %dl,0x14000(%rax)
	...

00000001400044a0 <.refptr.__xi_a>:
   1400044a0:	18 90 00 40 01 00    	sbb    %dl,0x14000(%rax)
	...

00000001400044b0 <.refptr.__xi_z>:
   1400044b0:	28 90 00 40 01 00    	sub    %dl,0x14000(%rax)
	...

00000001400044c0 <.refptr._commode>:
   1400044c0:	70 70                	jo     140004532 <.rdata$zzz+0x12>
   1400044c2:	00 40 01             	add    %al,0x1(%rax)
	...

00000001400044d0 <.refptr._dowildcard>:
   1400044d0:	20 30                	and    %dh,(%rax)
   1400044d2:	00 40 01             	add    %al,0x1(%rax)
	...

00000001400044e0 <.refptr._fmode>:
   1400044e0:	b0 70                	mov    $0x70,%al
   1400044e2:	00 40 01             	add    %al,0x1(%rax)
	...

00000001400044f0 <.refptr._gnu_exception_handler>:
   1400044f0:	d0 1c 00             	rcrb   (%rax,%rax,1)
   1400044f3:	40 01 00             	rex add %eax,(%rax)
	...

0000000140004500 <.refptr._matherr>:
   140004500:	30 16                	xor    %dl,(%rsi)
   140004502:	00 40 01             	add    %al,0x1(%rax)
	...

0000000140004510 <.refptr._newmode>:
   140004510:	50                   	push   %rax
   140004511:	70 00                	jo     140004513 <.refptr._newmode+0x3>
   140004513:	40 01 00             	rex add %eax,(%rax)
	...

0000000140004520 <.rdata$zzz>:
   140004520:	47                   	rex.RXB
   140004521:	43                   	rex.XB
   140004522:	43 3a 20             	rex.XB cmp (%r8),%spl
   140004525:	28 52 65             	sub    %dl,0x65(%rdx)
   140004528:	76 32                	jbe    14000455c <.rdata$zzz+0xc>
   14000452a:	2c 20                	sub    $0x20,%al
   14000452c:	42 75 69             	rex.X jne 140004598 <.rdata$zzz+0x18>
   14000452f:	6c                   	insb   (%dx),%es:(%rdi)
   140004530:	74 20                	je     140004552 <.rdata$zzz+0x2>
   140004532:	62                   	(bad)
   140004533:	79 20                	jns    140004555 <.rdata$zzz+0x5>
   140004535:	4d 53                	rex.WRB push %r11
   140004537:	59                   	pop    %rcx
   140004538:	53                   	push   %rbx
   140004539:	32 20                	xor    (%rax),%ah
   14000453b:	70 72                	jo     1400045af <.rdata$zzz+0x2f>
   14000453d:	6f                   	outsl  %ds:(%rsi),(%dx)
   14000453e:	6a 65                	push   $0x65
   140004540:	63 74 29 20          	movsxd 0x20(%rcx,%rbp,1),%esi
   140004544:	31 33                	xor    %esi,(%rbx)
   140004546:	2e 32 2e             	cs xor (%rsi),%ch
   140004549:	30 00                	xor    %al,(%rax)
   14000454b:	00 00                	add    %al,(%rax)
   14000454d:	00 00                	add    %al,(%rax)
	...

0000000140004550 <.rdata$zzz>:
   140004550:	47                   	rex.RXB
   140004551:	43                   	rex.XB
   140004552:	43 3a 20             	rex.XB cmp (%r8),%spl
   140004555:	28 52 65             	sub    %dl,0x65(%rdx)
   140004558:	76 32                	jbe    14000458c <.rdata$zzz+0xc>
   14000455a:	2c 20                	sub    $0x20,%al
   14000455c:	42 75 69             	rex.X jne 1400045c8 <.rdata$zzz+0x18>
   14000455f:	6c                   	insb   (%dx),%es:(%rdi)
   140004560:	74 20                	je     140004582 <.rdata$zzz+0x2>
   140004562:	62                   	(bad)
   140004563:	79 20                	jns    140004585 <.rdata$zzz+0x5>
   140004565:	4d 53                	rex.WRB push %r11
   140004567:	59                   	pop    %rcx
   140004568:	53                   	push   %rbx
   140004569:	32 20                	xor    (%rax),%ah
   14000456b:	70 72                	jo     1400045df <.rdata$zzz+0x2f>
   14000456d:	6f                   	outsl  %ds:(%rsi),(%dx)
   14000456e:	6a 65                	push   $0x65
   140004570:	63 74 29 20          	movsxd 0x20(%rcx,%rbp,1),%esi
   140004574:	31 33                	xor    %esi,(%rbx)
   140004576:	2e 32 2e             	cs xor (%rsi),%ch
   140004579:	30 00                	xor    %al,(%rax)
   14000457b:	00 00                	add    %al,(%rax)
   14000457d:	00 00                	add    %al,(%rax)
	...

0000000140004580 <.rdata$zzz>:
   140004580:	47                   	rex.RXB
   140004581:	43                   	rex.XB
   140004582:	43 3a 20             	rex.XB cmp (%r8),%spl
   140004585:	28 52 65             	sub    %dl,0x65(%rdx)
   140004588:	76 32                	jbe    1400045bc <.rdata$zzz+0xc>
   14000458a:	2c 20                	sub    $0x20,%al
   14000458c:	42 75 69             	rex.X jne 1400045f8 <.rdata$zzz+0x18>
   14000458f:	6c                   	insb   (%dx),%es:(%rdi)
   140004590:	74 20                	je     1400045b2 <.rdata$zzz+0x2>
   140004592:	62                   	(bad)
   140004593:	79 20                	jns    1400045b5 <.rdata$zzz+0x5>
   140004595:	4d 53                	rex.WRB push %r11
   140004597:	59                   	pop    %rcx
   140004598:	53                   	push   %rbx
   140004599:	32 20                	xor    (%rax),%ah
   14000459b:	70 72                	jo     14000460f <.rdata$zzz+0x2f>
   14000459d:	6f                   	outsl  %ds:(%rsi),(%dx)
   14000459e:	6a 65                	push   $0x65
   1400045a0:	63 74 29 20          	movsxd 0x20(%rcx,%rbp,1),%esi
   1400045a4:	31 33                	xor    %esi,(%rbx)
   1400045a6:	2e 32 2e             	cs xor (%rsi),%ch
   1400045a9:	30 00                	xor    %al,(%rax)
   1400045ab:	00 00                	add    %al,(%rax)
   1400045ad:	00 00                	add    %al,(%rax)
	...

00000001400045b0 <.rdata$zzz>:
   1400045b0:	47                   	rex.RXB
   1400045b1:	43                   	rex.XB
   1400045b2:	43 3a 20             	rex.XB cmp (%r8),%spl
   1400045b5:	28 52 65             	sub    %dl,0x65(%rdx)
   1400045b8:	76 32                	jbe    1400045ec <.rdata$zzz+0xc>
   1400045ba:	2c 20                	sub    $0x20,%al
   1400045bc:	42 75 69             	rex.X jne 140004628 <.rdata$zzz+0x18>
   1400045bf:	6c                   	insb   (%dx),%es:(%rdi)
   1400045c0:	74 20                	je     1400045e2 <.rdata$zzz+0x2>
   1400045c2:	62                   	(bad)
   1400045c3:	79 20                	jns    1400045e5 <.rdata$zzz+0x5>
   1400045c5:	4d 53                	rex.WRB push %r11
   1400045c7:	59                   	pop    %rcx
   1400045c8:	53                   	push   %rbx
   1400045c9:	32 20                	xor    (%rax),%ah
   1400045cb:	70 72                	jo     14000463f <.rdata$zzz+0x2f>
   1400045cd:	6f                   	outsl  %ds:(%rsi),(%dx)
   1400045ce:	6a 65                	push   $0x65
   1400045d0:	63 74 29 20          	movsxd 0x20(%rcx,%rbp,1),%esi
   1400045d4:	31 33                	xor    %esi,(%rbx)
   1400045d6:	2e 32 2e             	cs xor (%rsi),%ch
   1400045d9:	30 00                	xor    %al,(%rax)
   1400045db:	00 00                	add    %al,(%rax)
   1400045dd:	00 00                	add    %al,(%rax)
	...

00000001400045e0 <.rdata$zzz>:
   1400045e0:	47                   	rex.RXB
   1400045e1:	43                   	rex.XB
   1400045e2:	43 3a 20             	rex.XB cmp (%r8),%spl
   1400045e5:	28 52 65             	sub    %dl,0x65(%rdx)
   1400045e8:	76 32                	jbe    14000461c <.rdata$zzz+0xc>
   1400045ea:	2c 20                	sub    $0x20,%al
   1400045ec:	42 75 69             	rex.X jne 140004658 <.rdata$zzz+0x18>
   1400045ef:	6c                   	insb   (%dx),%es:(%rdi)
   1400045f0:	74 20                	je     140004612 <.rdata$zzz+0x2>
   1400045f2:	62                   	(bad)
   1400045f3:	79 20                	jns    140004615 <.rdata$zzz+0x5>
   1400045f5:	4d 53                	rex.WRB push %r11
   1400045f7:	59                   	pop    %rcx
   1400045f8:	53                   	push   %rbx
   1400045f9:	32 20                	xor    (%rax),%ah
   1400045fb:	70 72                	jo     14000466f <.rdata$zzz+0x2f>
   1400045fd:	6f                   	outsl  %ds:(%rsi),(%dx)
   1400045fe:	6a 65                	push   $0x65
   140004600:	63 74 29 20          	movsxd 0x20(%rcx,%rbp,1),%esi
   140004604:	31 33                	xor    %esi,(%rbx)
   140004606:	2e 32 2e             	cs xor (%rsi),%ch
   140004609:	30 00                	xor    %al,(%rax)
   14000460b:	00 00                	add    %al,(%rax)
   14000460d:	00 00                	add    %al,(%rax)
	...

0000000140004610 <.rdata$zzz>:
   140004610:	47                   	rex.RXB
   140004611:	43                   	rex.XB
   140004612:	43 3a 20             	rex.XB cmp (%r8),%spl
   140004615:	28 52 65             	sub    %dl,0x65(%rdx)
   140004618:	76 32                	jbe    14000464c <.rdata$zzz+0xc>
   14000461a:	2c 20                	sub    $0x20,%al
   14000461c:	42 75 69             	rex.X jne 140004688 <.rdata$zzz+0x18>
   14000461f:	6c                   	insb   (%dx),%es:(%rdi)
   140004620:	74 20                	je     140004642 <.rdata$zzz+0x2>
   140004622:	62                   	(bad)
   140004623:	79 20                	jns    140004645 <.rdata$zzz+0x5>
   140004625:	4d 53                	rex.WRB push %r11
   140004627:	59                   	pop    %rcx
   140004628:	53                   	push   %rbx
   140004629:	32 20                	xor    (%rax),%ah
   14000462b:	70 72                	jo     14000469f <.rdata$zzz+0x2f>
   14000462d:	6f                   	outsl  %ds:(%rsi),(%dx)
   14000462e:	6a 65                	push   $0x65
   140004630:	63 74 29 20          	movsxd 0x20(%rcx,%rbp,1),%esi
   140004634:	31 33                	xor    %esi,(%rbx)
   140004636:	2e 32 2e             	cs xor (%rsi),%ch
   140004639:	30 00                	xor    %al,(%rax)
   14000463b:	00 00                	add    %al,(%rax)
   14000463d:	00 00                	add    %al,(%rax)
	...

0000000140004640 <.rdata$zzz>:
   140004640:	47                   	rex.RXB
   140004641:	43                   	rex.XB
   140004642:	43 3a 20             	rex.XB cmp (%r8),%spl
   140004645:	28 52 65             	sub    %dl,0x65(%rdx)
   140004648:	76 32                	jbe    14000467c <.rdata$zzz+0xc>
   14000464a:	2c 20                	sub    $0x20,%al
   14000464c:	42 75 69             	rex.X jne 1400046b8 <.rdata$zzz+0x18>
   14000464f:	6c                   	insb   (%dx),%es:(%rdi)
   140004650:	74 20                	je     140004672 <.rdata$zzz+0x2>
   140004652:	62                   	(bad)
   140004653:	79 20                	jns    140004675 <.rdata$zzz+0x5>
   140004655:	4d 53                	rex.WRB push %r11
   140004657:	59                   	pop    %rcx
   140004658:	53                   	push   %rbx
   140004659:	32 20                	xor    (%rax),%ah
   14000465b:	70 72                	jo     1400046cf <.rdata$zzz+0x2f>
   14000465d:	6f                   	outsl  %ds:(%rsi),(%dx)
   14000465e:	6a 65                	push   $0x65
   140004660:	63 74 29 20          	movsxd 0x20(%rcx,%rbp,1),%esi
   140004664:	31 33                	xor    %esi,(%rbx)
   140004666:	2e 32 2e             	cs xor (%rsi),%ch
   140004669:	30 00                	xor    %al,(%rax)
   14000466b:	00 00                	add    %al,(%rax)
   14000466d:	00 00                	add    %al,(%rax)
	...

0000000140004670 <.rdata$zzz>:
   140004670:	47                   	rex.RXB
   140004671:	43                   	rex.XB
   140004672:	43 3a 20             	rex.XB cmp (%r8),%spl
   140004675:	28 52 65             	sub    %dl,0x65(%rdx)
   140004678:	76 32                	jbe    1400046ac <.rdata$zzz+0xc>
   14000467a:	2c 20                	sub    $0x20,%al
   14000467c:	42 75 69             	rex.X jne 1400046e8 <.rdata$zzz+0x18>
   14000467f:	6c                   	insb   (%dx),%es:(%rdi)
   140004680:	74 20                	je     1400046a2 <.rdata$zzz+0x2>
   140004682:	62                   	(bad)
   140004683:	79 20                	jns    1400046a5 <.rdata$zzz+0x5>
   140004685:	4d 53                	rex.WRB push %r11
   140004687:	59                   	pop    %rcx
   140004688:	53                   	push   %rbx
   140004689:	32 20                	xor    (%rax),%ah
   14000468b:	70 72                	jo     1400046ff <.rdata$zzz+0x2f>
   14000468d:	6f                   	outsl  %ds:(%rsi),(%dx)
   14000468e:	6a 65                	push   $0x65
   140004690:	63 74 29 20          	movsxd 0x20(%rcx,%rbp,1),%esi
   140004694:	31 33                	xor    %esi,(%rbx)
   140004696:	2e 32 2e             	cs xor (%rsi),%ch
   140004699:	30 00                	xor    %al,(%rax)
   14000469b:	00 00                	add    %al,(%rax)
   14000469d:	00 00                	add    %al,(%rax)
	...

00000001400046a0 <.rdata$zzz>:
   1400046a0:	47                   	rex.RXB
   1400046a1:	43                   	rex.XB
   1400046a2:	43 3a 20             	rex.XB cmp (%r8),%spl
   1400046a5:	28 52 65             	sub    %dl,0x65(%rdx)
   1400046a8:	76 32                	jbe    1400046dc <.rdata$zzz+0xc>
   1400046aa:	2c 20                	sub    $0x20,%al
   1400046ac:	42 75 69             	rex.X jne 140004718 <.rdata$zzz+0x18>
   1400046af:	6c                   	insb   (%dx),%es:(%rdi)
   1400046b0:	74 20                	je     1400046d2 <.rdata$zzz+0x2>
   1400046b2:	62                   	(bad)
   1400046b3:	79 20                	jns    1400046d5 <.rdata$zzz+0x5>
   1400046b5:	4d 53                	rex.WRB push %r11
   1400046b7:	59                   	pop    %rcx
   1400046b8:	53                   	push   %rbx
   1400046b9:	32 20                	xor    (%rax),%ah
   1400046bb:	70 72                	jo     14000472f <.rdata$zzz+0x2f>
   1400046bd:	6f                   	outsl  %ds:(%rsi),(%dx)
   1400046be:	6a 65                	push   $0x65
   1400046c0:	63 74 29 20          	movsxd 0x20(%rcx,%rbp,1),%esi
   1400046c4:	31 33                	xor    %esi,(%rbx)
   1400046c6:	2e 32 2e             	cs xor (%rsi),%ch
   1400046c9:	30 00                	xor    %al,(%rax)
   1400046cb:	00 00                	add    %al,(%rax)
   1400046cd:	00 00                	add    %al,(%rax)
	...

00000001400046d0 <.rdata$zzz>:
   1400046d0:	47                   	rex.RXB
   1400046d1:	43                   	rex.XB
   1400046d2:	43 3a 20             	rex.XB cmp (%r8),%spl
   1400046d5:	28 52 65             	sub    %dl,0x65(%rdx)
   1400046d8:	76 32                	jbe    14000470c <.rdata$zzz+0xc>
   1400046da:	2c 20                	sub    $0x20,%al
   1400046dc:	42 75 69             	rex.X jne 140004748 <.rdata$zzz+0x18>
   1400046df:	6c                   	insb   (%dx),%es:(%rdi)
   1400046e0:	74 20                	je     140004702 <.rdata$zzz+0x2>
   1400046e2:	62                   	(bad)
   1400046e3:	79 20                	jns    140004705 <.rdata$zzz+0x5>
   1400046e5:	4d 53                	rex.WRB push %r11
   1400046e7:	59                   	pop    %rcx
   1400046e8:	53                   	push   %rbx
   1400046e9:	32 20                	xor    (%rax),%ah
   1400046eb:	70 72                	jo     14000475f <.rdata$zzz+0x2f>
   1400046ed:	6f                   	outsl  %ds:(%rsi),(%dx)
   1400046ee:	6a 65                	push   $0x65
   1400046f0:	63 74 29 20          	movsxd 0x20(%rcx,%rbp,1),%esi
   1400046f4:	31 33                	xor    %esi,(%rbx)
   1400046f6:	2e 32 2e             	cs xor (%rsi),%ch
   1400046f9:	30 00                	xor    %al,(%rax)
   1400046fb:	00 00                	add    %al,(%rax)
   1400046fd:	00 00                	add    %al,(%rax)
	...

0000000140004700 <.rdata$zzz>:
   140004700:	47                   	rex.RXB
   140004701:	43                   	rex.XB
   140004702:	43 3a 20             	rex.XB cmp (%r8),%spl
   140004705:	28 52 65             	sub    %dl,0x65(%rdx)
   140004708:	76 32                	jbe    14000473c <.rdata$zzz+0xc>
   14000470a:	2c 20                	sub    $0x20,%al
   14000470c:	42 75 69             	rex.X jne 140004778 <.rdata$zzz+0x18>
   14000470f:	6c                   	insb   (%dx),%es:(%rdi)
   140004710:	74 20                	je     140004732 <.rdata$zzz+0x2>
   140004712:	62                   	(bad)
   140004713:	79 20                	jns    140004735 <.rdata$zzz+0x5>
   140004715:	4d 53                	rex.WRB push %r11
   140004717:	59                   	pop    %rcx
   140004718:	53                   	push   %rbx
   140004719:	32 20                	xor    (%rax),%ah
   14000471b:	70 72                	jo     14000478f <.rdata$zzz+0x2f>
   14000471d:	6f                   	outsl  %ds:(%rsi),(%dx)
   14000471e:	6a 65                	push   $0x65
   140004720:	63 74 29 20          	movsxd 0x20(%rcx,%rbp,1),%esi
   140004724:	31 33                	xor    %esi,(%rbx)
   140004726:	2e 32 2e             	cs xor (%rsi),%ch
   140004729:	30 00                	xor    %al,(%rax)
   14000472b:	00 00                	add    %al,(%rax)
   14000472d:	00 00                	add    %al,(%rax)
	...

0000000140004730 <.rdata$zzz>:
   140004730:	47                   	rex.RXB
   140004731:	43                   	rex.XB
   140004732:	43 3a 20             	rex.XB cmp (%r8),%spl
   140004735:	28 52 65             	sub    %dl,0x65(%rdx)
   140004738:	76 32                	jbe    14000476c <.rdata$zzz+0xc>
   14000473a:	2c 20                	sub    $0x20,%al
   14000473c:	42 75 69             	rex.X jne 1400047a8 <.rdata$zzz+0x18>
   14000473f:	6c                   	insb   (%dx),%es:(%rdi)
   140004740:	74 20                	je     140004762 <.rdata$zzz+0x2>
   140004742:	62                   	(bad)
   140004743:	79 20                	jns    140004765 <.rdata$zzz+0x5>
   140004745:	4d 53                	rex.WRB push %r11
   140004747:	59                   	pop    %rcx
   140004748:	53                   	push   %rbx
   140004749:	32 20                	xor    (%rax),%ah
   14000474b:	70 72                	jo     1400047bf <.rdata$zzz+0x2f>
   14000474d:	6f                   	outsl  %ds:(%rsi),(%dx)
   14000474e:	6a 65                	push   $0x65
   140004750:	63 74 29 20          	movsxd 0x20(%rcx,%rbp,1),%esi
   140004754:	31 33                	xor    %esi,(%rbx)
   140004756:	2e 32 2e             	cs xor (%rsi),%ch
   140004759:	30 00                	xor    %al,(%rax)
   14000475b:	00 00                	add    %al,(%rax)
   14000475d:	00 00                	add    %al,(%rax)
	...

0000000140004760 <.rdata$zzz>:
   140004760:	47                   	rex.RXB
   140004761:	43                   	rex.XB
   140004762:	43 3a 20             	rex.XB cmp (%r8),%spl
   140004765:	28 52 65             	sub    %dl,0x65(%rdx)
   140004768:	76 32                	jbe    14000479c <.rdata$zzz+0xc>
   14000476a:	2c 20                	sub    $0x20,%al
   14000476c:	42 75 69             	rex.X jne 1400047d8 <.rdata$zzz+0x18>
   14000476f:	6c                   	insb   (%dx),%es:(%rdi)
   140004770:	74 20                	je     140004792 <.rdata$zzz+0x2>
   140004772:	62                   	(bad)
   140004773:	79 20                	jns    140004795 <.rdata$zzz+0x5>
   140004775:	4d 53                	rex.WRB push %r11
   140004777:	59                   	pop    %rcx
   140004778:	53                   	push   %rbx
   140004779:	32 20                	xor    (%rax),%ah
   14000477b:	70 72                	jo     1400047ef <.rdata$zzz+0x2f>
   14000477d:	6f                   	outsl  %ds:(%rsi),(%dx)
   14000477e:	6a 65                	push   $0x65
   140004780:	63 74 29 20          	movsxd 0x20(%rcx,%rbp,1),%esi
   140004784:	31 33                	xor    %esi,(%rbx)
   140004786:	2e 32 2e             	cs xor (%rsi),%ch
   140004789:	30 00                	xor    %al,(%rax)
   14000478b:	00 00                	add    %al,(%rax)
   14000478d:	00 00                	add    %al,(%rax)
	...

0000000140004790 <.rdata$zzz>:
   140004790:	47                   	rex.RXB
   140004791:	43                   	rex.XB
   140004792:	43 3a 20             	rex.XB cmp (%r8),%spl
   140004795:	28 52 65             	sub    %dl,0x65(%rdx)
   140004798:	76 32                	jbe    1400047cc <.rdata$zzz+0xc>
   14000479a:	2c 20                	sub    $0x20,%al
   14000479c:	42 75 69             	rex.X jne 140004808 <.rdata$zzz+0x18>
   14000479f:	6c                   	insb   (%dx),%es:(%rdi)
   1400047a0:	74 20                	je     1400047c2 <.rdata$zzz+0x2>
   1400047a2:	62                   	(bad)
   1400047a3:	79 20                	jns    1400047c5 <.rdata$zzz+0x5>
   1400047a5:	4d 53                	rex.WRB push %r11
   1400047a7:	59                   	pop    %rcx
   1400047a8:	53                   	push   %rbx
   1400047a9:	32 20                	xor    (%rax),%ah
   1400047ab:	70 72                	jo     14000481f <.rdata$zzz+0x2f>
   1400047ad:	6f                   	outsl  %ds:(%rsi),(%dx)
   1400047ae:	6a 65                	push   $0x65
   1400047b0:	63 74 29 20          	movsxd 0x20(%rcx,%rbp,1),%esi
   1400047b4:	31 33                	xor    %esi,(%rbx)
   1400047b6:	2e 32 2e             	cs xor (%rsi),%ch
   1400047b9:	30 00                	xor    %al,(%rax)
   1400047bb:	00 00                	add    %al,(%rax)
   1400047bd:	00 00                	add    %al,(%rax)
	...

00000001400047c0 <.rdata$zzz>:
   1400047c0:	47                   	rex.RXB
   1400047c1:	43                   	rex.XB
   1400047c2:	43 3a 20             	rex.XB cmp (%r8),%spl
   1400047c5:	28 52 65             	sub    %dl,0x65(%rdx)
   1400047c8:	76 32                	jbe    1400047fc <.rdata$zzz+0xc>
   1400047ca:	2c 20                	sub    $0x20,%al
   1400047cc:	42 75 69             	rex.X jne 140004838 <.rdata$zzz+0x18>
   1400047cf:	6c                   	insb   (%dx),%es:(%rdi)
   1400047d0:	74 20                	je     1400047f2 <.rdata$zzz+0x2>
   1400047d2:	62                   	(bad)
   1400047d3:	79 20                	jns    1400047f5 <.rdata$zzz+0x5>
   1400047d5:	4d 53                	rex.WRB push %r11
   1400047d7:	59                   	pop    %rcx
   1400047d8:	53                   	push   %rbx
   1400047d9:	32 20                	xor    (%rax),%ah
   1400047db:	70 72                	jo     14000484f <.rdata$zzz+0x2f>
   1400047dd:	6f                   	outsl  %ds:(%rsi),(%dx)
   1400047de:	6a 65                	push   $0x65
   1400047e0:	63 74 29 20          	movsxd 0x20(%rcx,%rbp,1),%esi
   1400047e4:	31 33                	xor    %esi,(%rbx)
   1400047e6:	2e 32 2e             	cs xor (%rsi),%ch
   1400047e9:	30 00                	xor    %al,(%rax)
   1400047eb:	00 00                	add    %al,(%rax)
   1400047ed:	00 00                	add    %al,(%rax)
	...

00000001400047f0 <.rdata$zzz>:
   1400047f0:	47                   	rex.RXB
   1400047f1:	43                   	rex.XB
   1400047f2:	43 3a 20             	rex.XB cmp (%r8),%spl
   1400047f5:	28 52 65             	sub    %dl,0x65(%rdx)
   1400047f8:	76 32                	jbe    14000482c <.rdata$zzz+0xc>
   1400047fa:	2c 20                	sub    $0x20,%al
   1400047fc:	42 75 69             	rex.X jne 140004868 <.rdata$zzz+0x18>
   1400047ff:	6c                   	insb   (%dx),%es:(%rdi)
   140004800:	74 20                	je     140004822 <.rdata$zzz+0x2>
   140004802:	62                   	(bad)
   140004803:	79 20                	jns    140004825 <.rdata$zzz+0x5>
   140004805:	4d 53                	rex.WRB push %r11
   140004807:	59                   	pop    %rcx
   140004808:	53                   	push   %rbx
   140004809:	32 20                	xor    (%rax),%ah
   14000480b:	70 72                	jo     14000487f <.rdata$zzz+0x2f>
   14000480d:	6f                   	outsl  %ds:(%rsi),(%dx)
   14000480e:	6a 65                	push   $0x65
   140004810:	63 74 29 20          	movsxd 0x20(%rcx,%rbp,1),%esi
   140004814:	31 33                	xor    %esi,(%rbx)
   140004816:	2e 32 2e             	cs xor (%rsi),%ch
   140004819:	30 00                	xor    %al,(%rax)
   14000481b:	00 00                	add    %al,(%rax)
   14000481d:	00 00                	add    %al,(%rax)
	...

0000000140004820 <.rdata$zzz>:
   140004820:	47                   	rex.RXB
   140004821:	43                   	rex.XB
   140004822:	43 3a 20             	rex.XB cmp (%r8),%spl
   140004825:	28 52 65             	sub    %dl,0x65(%rdx)
   140004828:	76 32                	jbe    14000485c <.rdata$zzz+0xc>
   14000482a:	2c 20                	sub    $0x20,%al
   14000482c:	42 75 69             	rex.X jne 140004898 <.rdata$zzz+0x18>
   14000482f:	6c                   	insb   (%dx),%es:(%rdi)
   140004830:	74 20                	je     140004852 <.rdata$zzz+0x2>
   140004832:	62                   	(bad)
   140004833:	79 20                	jns    140004855 <.rdata$zzz+0x5>
   140004835:	4d 53                	rex.WRB push %r11
   140004837:	59                   	pop    %rcx
   140004838:	53                   	push   %rbx
   140004839:	32 20                	xor    (%rax),%ah
   14000483b:	70 72                	jo     1400048af <.rdata$zzz+0x2f>
   14000483d:	6f                   	outsl  %ds:(%rsi),(%dx)
   14000483e:	6a 65                	push   $0x65
   140004840:	63 74 29 20          	movsxd 0x20(%rcx,%rbp,1),%esi
   140004844:	31 33                	xor    %esi,(%rbx)
   140004846:	2e 32 2e             	cs xor (%rsi),%ch
   140004849:	30 00                	xor    %al,(%rax)
   14000484b:	00 00                	add    %al,(%rax)
   14000484d:	00 00                	add    %al,(%rax)
	...

0000000140004850 <.rdata$zzz>:
   140004850:	47                   	rex.RXB
   140004851:	43                   	rex.XB
   140004852:	43 3a 20             	rex.XB cmp (%r8),%spl
   140004855:	28 52 65             	sub    %dl,0x65(%rdx)
   140004858:	76 32                	jbe    14000488c <.rdata$zzz+0xc>
   14000485a:	2c 20                	sub    $0x20,%al
   14000485c:	42 75 69             	rex.X jne 1400048c8 <.rdata$zzz+0x18>
   14000485f:	6c                   	insb   (%dx),%es:(%rdi)
   140004860:	74 20                	je     140004882 <.rdata$zzz+0x2>
   140004862:	62                   	(bad)
   140004863:	79 20                	jns    140004885 <.rdata$zzz+0x5>
   140004865:	4d 53                	rex.WRB push %r11
   140004867:	59                   	pop    %rcx
   140004868:	53                   	push   %rbx
   140004869:	32 20                	xor    (%rax),%ah
   14000486b:	70 72                	jo     1400048df <.rdata$zzz+0x2f>
   14000486d:	6f                   	outsl  %ds:(%rsi),(%dx)
   14000486e:	6a 65                	push   $0x65
   140004870:	63 74 29 20          	movsxd 0x20(%rcx,%rbp,1),%esi
   140004874:	31 33                	xor    %esi,(%rbx)
   140004876:	2e 32 2e             	cs xor (%rsi),%ch
   140004879:	30 00                	xor    %al,(%rax)
   14000487b:	00 00                	add    %al,(%rax)
   14000487d:	00 00                	add    %al,(%rax)
	...

0000000140004880 <.rdata$zzz>:
   140004880:	47                   	rex.RXB
   140004881:	43                   	rex.XB
   140004882:	43 3a 20             	rex.XB cmp (%r8),%spl
   140004885:	28 52 65             	sub    %dl,0x65(%rdx)
   140004888:	76 32                	jbe    1400048bc <.rdata$zzz+0xc>
   14000488a:	2c 20                	sub    $0x20,%al
   14000488c:	42 75 69             	rex.X jne 1400048f8 <.rdata$zzz+0x18>
   14000488f:	6c                   	insb   (%dx),%es:(%rdi)
   140004890:	74 20                	je     1400048b2 <.rdata$zzz+0x2>
   140004892:	62                   	(bad)
   140004893:	79 20                	jns    1400048b5 <.rdata$zzz+0x5>
   140004895:	4d 53                	rex.WRB push %r11
   140004897:	59                   	pop    %rcx
   140004898:	53                   	push   %rbx
   140004899:	32 20                	xor    (%rax),%ah
   14000489b:	70 72                	jo     14000490f <.rdata$zzz+0x2f>
   14000489d:	6f                   	outsl  %ds:(%rsi),(%dx)
   14000489e:	6a 65                	push   $0x65
   1400048a0:	63 74 29 20          	movsxd 0x20(%rcx,%rbp,1),%esi
   1400048a4:	31 33                	xor    %esi,(%rbx)
   1400048a6:	2e 32 2e             	cs xor (%rsi),%ch
   1400048a9:	30 00                	xor    %al,(%rax)
   1400048ab:	00 00                	add    %al,(%rax)
   1400048ad:	00 00                	add    %al,(%rax)
	...

00000001400048b0 <.rdata$zzz>:
   1400048b0:	47                   	rex.RXB
   1400048b1:	43                   	rex.XB
   1400048b2:	43 3a 20             	rex.XB cmp (%r8),%spl
   1400048b5:	28 52 65             	sub    %dl,0x65(%rdx)
   1400048b8:	76 32                	jbe    1400048ec <.rdata$zzz+0xc>
   1400048ba:	2c 20                	sub    $0x20,%al
   1400048bc:	42 75 69             	rex.X jne 140004928 <.rdata$zzz+0x18>
   1400048bf:	6c                   	insb   (%dx),%es:(%rdi)
   1400048c0:	74 20                	je     1400048e2 <.rdata$zzz+0x2>
   1400048c2:	62                   	(bad)
   1400048c3:	79 20                	jns    1400048e5 <.rdata$zzz+0x5>
   1400048c5:	4d 53                	rex.WRB push %r11
   1400048c7:	59                   	pop    %rcx
   1400048c8:	53                   	push   %rbx
   1400048c9:	32 20                	xor    (%rax),%ah
   1400048cb:	70 72                	jo     14000493f <.rdata$zzz+0x2f>
   1400048cd:	6f                   	outsl  %ds:(%rsi),(%dx)
   1400048ce:	6a 65                	push   $0x65
   1400048d0:	63 74 29 20          	movsxd 0x20(%rcx,%rbp,1),%esi
   1400048d4:	31 33                	xor    %esi,(%rbx)
   1400048d6:	2e 32 2e             	cs xor (%rsi),%ch
   1400048d9:	30 00                	xor    %al,(%rax)
   1400048db:	00 00                	add    %al,(%rax)
   1400048dd:	00 00                	add    %al,(%rax)
	...

00000001400048e0 <.rdata$zzz>:
   1400048e0:	47                   	rex.RXB
   1400048e1:	43                   	rex.XB
   1400048e2:	43 3a 20             	rex.XB cmp (%r8),%spl
   1400048e5:	28 52 65             	sub    %dl,0x65(%rdx)
   1400048e8:	76 32                	jbe    14000491c <.rdata$zzz+0xc>
   1400048ea:	2c 20                	sub    $0x20,%al
   1400048ec:	42 75 69             	rex.X jne 140004958 <.rdata$zzz+0x18>
   1400048ef:	6c                   	insb   (%dx),%es:(%rdi)
   1400048f0:	74 20                	je     140004912 <.rdata$zzz+0x2>
   1400048f2:	62                   	(bad)
   1400048f3:	79 20                	jns    140004915 <.rdata$zzz+0x5>
   1400048f5:	4d 53                	rex.WRB push %r11
   1400048f7:	59                   	pop    %rcx
   1400048f8:	53                   	push   %rbx
   1400048f9:	32 20                	xor    (%rax),%ah
   1400048fb:	70 72                	jo     14000496f <.rdata$zzz+0x2f>
   1400048fd:	6f                   	outsl  %ds:(%rsi),(%dx)
   1400048fe:	6a 65                	push   $0x65
   140004900:	63 74 29 20          	movsxd 0x20(%rcx,%rbp,1),%esi
   140004904:	31 33                	xor    %esi,(%rbx)
   140004906:	2e 32 2e             	cs xor (%rsi),%ch
   140004909:	30 00                	xor    %al,(%rax)
   14000490b:	00 00                	add    %al,(%rax)
   14000490d:	00 00                	add    %al,(%rax)
	...

0000000140004910 <.rdata$zzz>:
   140004910:	47                   	rex.RXB
   140004911:	43                   	rex.XB
   140004912:	43 3a 20             	rex.XB cmp (%r8),%spl
   140004915:	28 52 65             	sub    %dl,0x65(%rdx)
   140004918:	76 32                	jbe    14000494c <.rdata$zzz+0xc>
   14000491a:	2c 20                	sub    $0x20,%al
   14000491c:	42 75 69             	rex.X jne 140004988 <.rdata$zzz+0x18>
   14000491f:	6c                   	insb   (%dx),%es:(%rdi)
   140004920:	74 20                	je     140004942 <.rdata$zzz+0x2>
   140004922:	62                   	(bad)
   140004923:	79 20                	jns    140004945 <.rdata$zzz+0x5>
   140004925:	4d 53                	rex.WRB push %r11
   140004927:	59                   	pop    %rcx
   140004928:	53                   	push   %rbx
   140004929:	32 20                	xor    (%rax),%ah
   14000492b:	70 72                	jo     14000499f <.rdata$zzz+0x2f>
   14000492d:	6f                   	outsl  %ds:(%rsi),(%dx)
   14000492e:	6a 65                	push   $0x65
   140004930:	63 74 29 20          	movsxd 0x20(%rcx,%rbp,1),%esi
   140004934:	31 33                	xor    %esi,(%rbx)
   140004936:	2e 32 2e             	cs xor (%rsi),%ch
   140004939:	30 00                	xor    %al,(%rax)
   14000493b:	00 00                	add    %al,(%rax)
   14000493d:	00 00                	add    %al,(%rax)
	...

0000000140004940 <.rdata$zzz>:
   140004940:	47                   	rex.RXB
   140004941:	43                   	rex.XB
   140004942:	43 3a 20             	rex.XB cmp (%r8),%spl
   140004945:	28 52 65             	sub    %dl,0x65(%rdx)
   140004948:	76 32                	jbe    14000497c <.rdata$zzz+0xc>
   14000494a:	2c 20                	sub    $0x20,%al
   14000494c:	42 75 69             	rex.X jne 1400049b8 <.rdata$zzz+0x18>
   14000494f:	6c                   	insb   (%dx),%es:(%rdi)
   140004950:	74 20                	je     140004972 <.rdata$zzz+0x2>
   140004952:	62                   	(bad)
   140004953:	79 20                	jns    140004975 <.rdata$zzz+0x5>
   140004955:	4d 53                	rex.WRB push %r11
   140004957:	59                   	pop    %rcx
   140004958:	53                   	push   %rbx
   140004959:	32 20                	xor    (%rax),%ah
   14000495b:	70 72                	jo     1400049cf <.rdata$zzz+0x2f>
   14000495d:	6f                   	outsl  %ds:(%rsi),(%dx)
   14000495e:	6a 65                	push   $0x65
   140004960:	63 74 29 20          	movsxd 0x20(%rcx,%rbp,1),%esi
   140004964:	31 33                	xor    %esi,(%rbx)
   140004966:	2e 32 2e             	cs xor (%rsi),%ch
   140004969:	30 00                	xor    %al,(%rax)
   14000496b:	00 00                	add    %al,(%rax)
   14000496d:	00 00                	add    %al,(%rax)
	...

0000000140004970 <.rdata$zzz>:
   140004970:	47                   	rex.RXB
   140004971:	43                   	rex.XB
   140004972:	43 3a 20             	rex.XB cmp (%r8),%spl
   140004975:	28 52 65             	sub    %dl,0x65(%rdx)
   140004978:	76 32                	jbe    1400049ac <.rdata$zzz+0xc>
   14000497a:	2c 20                	sub    $0x20,%al
   14000497c:	42 75 69             	rex.X jne 1400049e8 <.rdata$zzz+0x18>
   14000497f:	6c                   	insb   (%dx),%es:(%rdi)
   140004980:	74 20                	je     1400049a2 <.rdata$zzz+0x2>
   140004982:	62                   	(bad)
   140004983:	79 20                	jns    1400049a5 <.rdata$zzz+0x5>
   140004985:	4d 53                	rex.WRB push %r11
   140004987:	59                   	pop    %rcx
   140004988:	53                   	push   %rbx
   140004989:	32 20                	xor    (%rax),%ah
   14000498b:	70 72                	jo     1400049ff <.rdata$zzz+0x2f>
   14000498d:	6f                   	outsl  %ds:(%rsi),(%dx)
   14000498e:	6a 65                	push   $0x65
   140004990:	63 74 29 20          	movsxd 0x20(%rcx,%rbp,1),%esi
   140004994:	31 33                	xor    %esi,(%rbx)
   140004996:	2e 32 2e             	cs xor (%rsi),%ch
   140004999:	30 00                	xor    %al,(%rax)
   14000499b:	00 00                	add    %al,(%rax)
   14000499d:	00 00                	add    %al,(%rax)
	...

00000001400049a0 <.rdata$zzz>:
   1400049a0:	47                   	rex.RXB
   1400049a1:	43                   	rex.XB
   1400049a2:	43 3a 20             	rex.XB cmp (%r8),%spl
   1400049a5:	28 52 65             	sub    %dl,0x65(%rdx)
   1400049a8:	76 32                	jbe    1400049dc <.rdata$zzz+0xc>
   1400049aa:	2c 20                	sub    $0x20,%al
   1400049ac:	42 75 69             	rex.X jne 140004a18 <.rdata$zzz+0x18>
   1400049af:	6c                   	insb   (%dx),%es:(%rdi)
   1400049b0:	74 20                	je     1400049d2 <.rdata$zzz+0x2>
   1400049b2:	62                   	(bad)
   1400049b3:	79 20                	jns    1400049d5 <.rdata$zzz+0x5>
   1400049b5:	4d 53                	rex.WRB push %r11
   1400049b7:	59                   	pop    %rcx
   1400049b8:	53                   	push   %rbx
   1400049b9:	32 20                	xor    (%rax),%ah
   1400049bb:	70 72                	jo     140004a2f <.rdata$zzz+0x2f>
   1400049bd:	6f                   	outsl  %ds:(%rsi),(%dx)
   1400049be:	6a 65                	push   $0x65
   1400049c0:	63 74 29 20          	movsxd 0x20(%rcx,%rbp,1),%esi
   1400049c4:	31 33                	xor    %esi,(%rbx)
   1400049c6:	2e 32 2e             	cs xor (%rsi),%ch
   1400049c9:	30 00                	xor    %al,(%rax)
   1400049cb:	00 00                	add    %al,(%rax)
   1400049cd:	00 00                	add    %al,(%rax)
	...

00000001400049d0 <.rdata$zzz>:
   1400049d0:	47                   	rex.RXB
   1400049d1:	43                   	rex.XB
   1400049d2:	43 3a 20             	rex.XB cmp (%r8),%spl
   1400049d5:	28 52 65             	sub    %dl,0x65(%rdx)
   1400049d8:	76 32                	jbe    140004a0c <.rdata$zzz+0xc>
   1400049da:	2c 20                	sub    $0x20,%al
   1400049dc:	42 75 69             	rex.X jne 140004a48 <.rdata$zzz+0x18>
   1400049df:	6c                   	insb   (%dx),%es:(%rdi)
   1400049e0:	74 20                	je     140004a02 <.rdata$zzz+0x2>
   1400049e2:	62                   	(bad)
   1400049e3:	79 20                	jns    140004a05 <.rdata$zzz+0x5>
   1400049e5:	4d 53                	rex.WRB push %r11
   1400049e7:	59                   	pop    %rcx
   1400049e8:	53                   	push   %rbx
   1400049e9:	32 20                	xor    (%rax),%ah
   1400049eb:	70 72                	jo     140004a5f <.rdata$zzz+0x2f>
   1400049ed:	6f                   	outsl  %ds:(%rsi),(%dx)
   1400049ee:	6a 65                	push   $0x65
   1400049f0:	63 74 29 20          	movsxd 0x20(%rcx,%rbp,1),%esi
   1400049f4:	31 33                	xor    %esi,(%rbx)
   1400049f6:	2e 32 2e             	cs xor (%rsi),%ch
   1400049f9:	30 00                	xor    %al,(%rax)
   1400049fb:	00 00                	add    %al,(%rax)
   1400049fd:	00 00                	add    %al,(%rax)
	...

0000000140004a00 <.rdata$zzz>:
   140004a00:	47                   	rex.RXB
   140004a01:	43                   	rex.XB
   140004a02:	43 3a 20             	rex.XB cmp (%r8),%spl
   140004a05:	28 52 65             	sub    %dl,0x65(%rdx)
   140004a08:	76 32                	jbe    140004a3c <.rdata$zzz+0xc>
   140004a0a:	2c 20                	sub    $0x20,%al
   140004a0c:	42 75 69             	rex.X jne 140004a78 <.rdata$zzz+0x18>
   140004a0f:	6c                   	insb   (%dx),%es:(%rdi)
   140004a10:	74 20                	je     140004a32 <.rdata$zzz+0x2>
   140004a12:	62                   	(bad)
   140004a13:	79 20                	jns    140004a35 <.rdata$zzz+0x5>
   140004a15:	4d 53                	rex.WRB push %r11
   140004a17:	59                   	pop    %rcx
   140004a18:	53                   	push   %rbx
   140004a19:	32 20                	xor    (%rax),%ah
   140004a1b:	70 72                	jo     140004a8f <.rdata$zzz+0x2f>
   140004a1d:	6f                   	outsl  %ds:(%rsi),(%dx)
   140004a1e:	6a 65                	push   $0x65
   140004a20:	63 74 29 20          	movsxd 0x20(%rcx,%rbp,1),%esi
   140004a24:	31 33                	xor    %esi,(%rbx)
   140004a26:	2e 32 2e             	cs xor (%rsi),%ch
   140004a29:	30 00                	xor    %al,(%rax)
   140004a2b:	00 00                	add    %al,(%rax)
   140004a2d:	00 00                	add    %al,(%rax)
	...

0000000140004a30 <.rdata$zzz>:
   140004a30:	47                   	rex.RXB
   140004a31:	43                   	rex.XB
   140004a32:	43 3a 20             	rex.XB cmp (%r8),%spl
   140004a35:	28 52 65             	sub    %dl,0x65(%rdx)
   140004a38:	76 32                	jbe    140004a6c <.rdata$zzz+0xc>
   140004a3a:	2c 20                	sub    $0x20,%al
   140004a3c:	42 75 69             	rex.X jne 140004aa8 <__RUNTIME_PSEUDO_RELOC_LIST_END__+0x18>
   140004a3f:	6c                   	insb   (%dx),%es:(%rdi)
   140004a40:	74 20                	je     140004a62 <.rdata$zzz+0x2>
   140004a42:	62                   	(bad)
   140004a43:	79 20                	jns    140004a65 <.rdata$zzz+0x5>
   140004a45:	4d 53                	rex.WRB push %r11
   140004a47:	59                   	pop    %rcx
   140004a48:	53                   	push   %rbx
   140004a49:	32 20                	xor    (%rax),%ah
   140004a4b:	70 72                	jo     140004abf <__RUNTIME_PSEUDO_RELOC_LIST_END__+0x2f>
   140004a4d:	6f                   	outsl  %ds:(%rsi),(%dx)
   140004a4e:	6a 65                	push   $0x65
   140004a50:	63 74 29 20          	movsxd 0x20(%rcx,%rbp,1),%esi
   140004a54:	31 33                	xor    %esi,(%rbx)
   140004a56:	2e 32 2e             	cs xor (%rsi),%ch
   140004a59:	30 00                	xor    %al,(%rax)
   140004a5b:	00 00                	add    %al,(%rax)
   140004a5d:	00 00                	add    %al,(%rax)
	...

0000000140004a60 <.rdata$zzz>:
   140004a60:	47                   	rex.RXB
   140004a61:	43                   	rex.XB
   140004a62:	43 3a 20             	rex.XB cmp (%r8),%spl
   140004a65:	28 52 65             	sub    %dl,0x65(%rdx)
   140004a68:	76 32                	jbe    140004a9c <__RUNTIME_PSEUDO_RELOC_LIST_END__+0xc>
   140004a6a:	2c 20                	sub    $0x20,%al
   140004a6c:	42 75 69             	rex.X jne 140004ad8 <__RUNTIME_PSEUDO_RELOC_LIST_END__+0x48>
   140004a6f:	6c                   	insb   (%dx),%es:(%rdi)
   140004a70:	74 20                	je     140004a92 <__RUNTIME_PSEUDO_RELOC_LIST_END__+0x2>
   140004a72:	62                   	(bad)
   140004a73:	79 20                	jns    140004a95 <__RUNTIME_PSEUDO_RELOC_LIST_END__+0x5>
   140004a75:	4d 53                	rex.WRB push %r11
   140004a77:	59                   	pop    %rcx
   140004a78:	53                   	push   %rbx
   140004a79:	32 20                	xor    (%rax),%ah
   140004a7b:	70 72                	jo     140004aef <__RUNTIME_PSEUDO_RELOC_LIST_END__+0x5f>
   140004a7d:	6f                   	outsl  %ds:(%rsi),(%dx)
   140004a7e:	6a 65                	push   $0x65
   140004a80:	63 74 29 20          	movsxd 0x20(%rcx,%rbp,1),%esi
   140004a84:	31 33                	xor    %esi,(%rbx)
   140004a86:	2e 32 2e             	cs xor (%rsi),%ch
   140004a89:	30 00                	xor    %al,(%rax)
   140004a8b:	00 00                	add    %al,(%rax)
   140004a8d:	00 00                	add    %al,(%rax)
	...

Disassembly of section .pdata:

0000000140005000 <.pdata>:
   140005000:	00 10                	add    %dl,(%rax)
   140005002:	00 00                	add    %al,(%rax)
   140005004:	01 10                	add    %edx,(%rax)
   140005006:	00 00                	add    %al,(%rax)
   140005008:	00 60 00             	add    %ah,0x0(%rax)
   14000500b:	00 10                	add    %dl,(%rax)
   14000500d:	10 00                	adc    %al,(%rax)
   14000500f:	00 2e                	add    %ch,(%rsi)
   140005011:	11 00                	adc    %eax,(%rax)
   140005013:	00 04 60             	add    %al,(%rax,%riz,2)
   140005016:	00 00                	add    %al,(%rax)
   140005018:	30 11                	xor    %dl,(%rcx)
   14000501a:	00 00                	add    %al,(%rax)
   14000501c:	79 11                	jns    14000502f <.pdata+0x2f>
   14000501e:	00 00                	add    %al,(%rax)
   140005020:	0c 60                	or     $0x60,%al
   140005022:	00 00                	add    %al,(%rax)
   140005024:	80 11 00             	adcb   $0x0,(%rcx)
   140005027:	00 d0                	add    %dl,%al
   140005029:	13 00                	adc    (%rax),%eax
   14000502b:	00 14 60             	add    %dl,(%rax,%riz,2)
   14000502e:	00 00                	add    %al,(%rax)
   140005030:	d0 13                	rclb   (%rbx)
   140005032:	00 00                	add    %al,(%rax)
   140005034:	ed                   	in     (%dx),%eax
   140005035:	13 00                	adc    (%rax),%eax
   140005037:	00 24 60             	add    %ah,(%rax,%riz,2)
   14000503a:	00 00                	add    %al,(%rax)
   14000503c:	f0 13 00             	lock adc (%rax),%eax
   14000503f:	00 0d 14 00 00 44    	add    %cl,0x44000014(%rip)        # 184005059 <.debug_rnglists+0x43fe1f8f>
   140005045:	60                   	(bad)
   140005046:	00 00                	add    %al,(%rax)
   140005048:	10 14 00             	adc    %dl,(%rax,%rax,1)
   14000504b:	00 24 14             	add    %ah,(%rsp,%rdx,1)
   14000504e:	00 00                	add    %al,(%rax)
   140005050:	64 60                	fs (bad)
	...

0000000140005054 <.pdata>:
   140005054:	30 14 00             	xor    %dl,(%rax,%rax,1)
   140005057:	00 3c 14             	add    %bh,(%rsp,%rdx,1)
   14000505a:	00 00                	add    %al,(%rax)
   14000505c:	6c                   	insb   (%dx),%es:(%rdi)
   14000505d:	60                   	(bad)
   14000505e:	00 00                	add    %al,(%rax)
   140005060:	40 14 00             	rex adc $0x0,%al
   140005063:	00 41 14             	add    %al,0x14(%rcx)
   140005066:	00 00                	add    %al,(%rax)
   140005068:	70 60                	jo     1400050ca <.pdata+0x22>
	...

000000014000506c <.pdata>:
   14000506c:	50                   	push   %rax
   14000506d:	14 00                	adc    $0x0,%al
   14000506f:	00 77 14             	add    %dh,0x14(%rdi)
   140005072:	00 00                	add    %al,(%rax)
   140005074:	74 60                	je     1400050d6 <.pdata+0xa>
	...

0000000140005078 <.pdata>:
   140005078:	80 14 00 00          	adcb   $0x0,(%rax,%rax,1)
   14000507c:	ba 14 00 00 80       	mov    $0x80000014,%edx
   140005081:	60                   	(bad)
   140005082:	00 00                	add    %al,(%rax)
   140005084:	c0 14 00 00          	rclb   $0x0,(%rax,%rax,1)
   140005088:	2a 15 00 00 88 60    	sub    0x60880000(%rip),%dl        # 1a088508e <.debug_rnglists+0x60861fc4>
   14000508e:	00 00                	add    %al,(%rax)
   140005090:	30 15 00 00 4f 15    	xor    %dl,0x154f0000(%rip)        # 1554f5096 <.debug_rnglists+0x154d1fcc>
   140005096:	00 00                	add    %al,(%rax)
   140005098:	94                   	xchg   %eax,%esp
   140005099:	60                   	(bad)
	...

000000014000509c <.pdata>:
   14000509c:	50                   	push   %rax
   14000509d:	15 00 00 53 15       	adc    $0x15530000,%eax
   1400050a2:	00 00                	add    %al,(%rax)
   1400050a4:	98                   	cwtl
   1400050a5:	60                   	(bad)
	...

00000001400050a8 <.pdata>:
   1400050a8:	60                   	(bad)
   1400050a9:	15 00 00 8f 15       	adc    $0x158f0000,%eax
   1400050ae:	00 00                	add    %al,(%rax)
   1400050b0:	9c                   	pushf
   1400050b1:	60                   	(bad)
   1400050b2:	00 00                	add    %al,(%rax)
   1400050b4:	90                   	nop
   1400050b5:	15 00 00 11 16       	adc    $0x16110000,%eax
   1400050ba:	00 00                	add    %al,(%rax)
   1400050bc:	a4                   	movsb  %ds:(%rsi),%es:(%rdi)
   1400050bd:	60                   	(bad)
   1400050be:	00 00                	add    %al,(%rax)
   1400050c0:	20 16                	and    %dl,(%rsi)
   1400050c2:	00 00                	add    %al,(%rax)
   1400050c4:	23 16                	and    (%rsi),%edx
   1400050c6:	00 00                	add    %al,(%rax)
   1400050c8:	b0 60                	mov    $0x60,%al
	...

00000001400050cc <.pdata>:
   1400050cc:	30 16                	xor    %dl,(%rsi)
   1400050ce:	00 00                	add    %al,(%rax)
   1400050d0:	28 17                	sub    %dl,(%rdi)
   1400050d2:	00 00                	add    %al,(%rax)
   1400050d4:	b4 60                	mov    $0x60,%ah
	...

00000001400050d8 <.pdata>:
   1400050d8:	30 17                	xor    %dl,(%rdi)
   1400050da:	00 00                	add    %al,(%rax)
   1400050dc:	33 17                	xor    (%rdi),%edx
   1400050de:	00 00                	add    %al,(%rax)
   1400050e0:	cc                   	int3
   1400050e1:	60                   	(bad)
	...

00000001400050e4 <.pdata>:
   1400050e4:	40 17                	rex (bad)
   1400050e6:	00 00                	add    %al,(%rax)
   1400050e8:	a9 17 00 00 d0       	test   $0xd0000017,%eax
   1400050ed:	60                   	(bad)
   1400050ee:	00 00                	add    %al,(%rax)
   1400050f0:	b0 17                	mov    $0x17,%al
   1400050f2:	00 00                	add    %al,(%rax)
   1400050f4:	12 19                	adc    (%rcx),%bl
   1400050f6:	00 00                	add    %al,(%rax)
   1400050f8:	dc 60 00             	fsubl  0x0(%rax)
   1400050fb:	00 20                	add    %ah,(%rax)
   1400050fd:	19 00                	sbb    %eax,(%rax)
   1400050ff:	00 7d 1c             	add    %bh,0x1c(%rbp)
   140005102:	00 00                	add    %al,(%rax)
   140005104:	e8 60 00 00        	call   c0005169 <__size_of_stack_reserve__+0xbfe05169>

0000000140005108 <.pdata>:
   140005108:	80 1c 00 00          	sbbb   $0x0,(%rax,%rax,1)
   14000510c:	be 1c 00 00 00       	mov    $0x1c,%esi
   140005111:	61                   	(bad)
   140005112:	00 00                	add    %al,(%rax)
   140005114:	c0 1c 00 00          	rcrb   $0x0,(%rax,%rax,1)
   140005118:	cc                   	int3
   140005119:	1c 00                	sbb    $0x0,%al
   14000511b:	00 08                	add    %cl,(%rax)
   14000511d:	61                   	(bad)
	...

0000000140005120 <.pdata>:
   140005120:	d0 1c 00             	rcrb   (%rax,%rax,1)
   140005123:	00 8d 1e 00 00 0c    	add    %cl,0xc00001e(%rbp)
   140005129:	61                   	(bad)
	...

000000014000512c <.pdata>:
   14000512c:	90                   	nop
   14000512d:	1e                   	(bad)
   14000512e:	00 00                	add    %al,(%rax)
   140005130:	00 1f                	add    %bl,(%rdi)
   140005132:	00 00                	add    %al,(%rax)
   140005134:	14 61                	adc    $0x61,%al
   140005136:	00 00                	add    %al,(%rax)
   140005138:	00 1f                	add    %bl,(%rdi)
   14000513a:	00 00                	add    %al,(%rax)
   14000513c:	6f                   	outsl  %ds:(%rsi),(%dx)
   14000513d:	1f                   	(bad)
   14000513e:	00 00                	add    %al,(%rax)
   140005140:	24 61                	and    $0x61,%al
   140005142:	00 00                	add    %al,(%rax)
   140005144:	70 1f                	jo     140005165 <.pdata+0x9>
   140005146:	00 00                	add    %al,(%rax)
   140005148:	f1                   	int1
   140005149:	1f                   	(bad)
   14000514a:	00 00                	add    %al,(%rax)
   14000514c:	30 61 00             	xor    %ah,0x0(%rcx)
   14000514f:	00 00                	add    %al,(%rax)
   140005151:	20 00                	and    %al,(%rax)
   140005153:	00 f2                	add    %dh,%dl
   140005155:	20 00                	and    %al,(%rax)
   140005157:	00 3c 61             	add    %bh,(%rcx,%riz,2)
	...

000000014000515c <.pdata>:
   14000515c:	00 21                	add    %ah,(%rcx)
   14000515e:	00 00                	add    %al,(%rax)
   140005160:	2c 21                	sub    $0x21,%al
   140005162:	00 00                	add    %al,(%rax)
   140005164:	44 61                	rex.R (bad)
   140005166:	00 00                	add    %al,(%rax)
   140005168:	30 21                	xor    %ah,(%rcx)
   14000516a:	00 00                	add    %al,(%rax)
   14000516c:	80 21 00             	andb   $0x0,(%rcx)
   14000516f:	00 48 61             	add    %cl,0x61(%rax)
   140005172:	00 00                	add    %al,(%rax)
   140005174:	80 21 00             	andb   $0x0,(%rcx)
   140005177:	00 1d 22 00 00 4c    	add    %bl,0x4c000022(%rip)        # 18c00519f <.debug_rnglists+0x4bfe20d5>
   14000517d:	61                   	(bad)
   14000517e:	00 00                	add    %al,(%rax)
   140005180:	20 22                	and    %ah,(%rdx)
   140005182:	00 00                	add    %al,(%rax)
   140005184:	a0 22 00 00 58 61 00 	movabs 0xa000006158000022,%al
   14000518b:	00 a0 
   14000518d:	22 00                	and    (%rax),%al
   14000518f:	00 d7                	add    %dl,%bh
   140005191:	22 00                	and    (%rax),%al
   140005193:	00 5c 61 00          	add    %bl,0x0(%rcx,%riz,2)
   140005197:	00 e0                	add    %ah,%al
   140005199:	22 00                	and    (%rax),%al
   14000519b:	00 53 23             	add    %dl,0x23(%rbx)
   14000519e:	00 00                	add    %al,(%rax)
   1400051a0:	60                   	(bad)
   1400051a1:	61                   	(bad)
   1400051a2:	00 00                	add    %al,(%rax)
   1400051a4:	60                   	(bad)
   1400051a5:	23 00                	and    (%rax),%eax
   1400051a7:	00 96 23 00 00 64    	add    %dl,0x64000023(%rsi)
   1400051ad:	61                   	(bad)
   1400051ae:	00 00                	add    %al,(%rax)
   1400051b0:	a0 23 00 00 29 24 00 	movabs 0x6800002429000023,%al
   1400051b7:	00 68 
   1400051b9:	61                   	(bad)
   1400051ba:	00 00                	add    %al,(%rax)
   1400051bc:	30 24 00             	xor    %ah,(%rax,%rax,1)
   1400051bf:	00 f6                	add    %dh,%dh
   1400051c1:	24 00                	and    $0x0,%al
   1400051c3:	00 6c 61 00          	add    %ch,0x0(%rcx,%riz,2)
	...

00000001400051c8 <.pdata>:
   1400051c8:	40 25 00 00 5e 25    	rex and $0x255e0000,%eax
   1400051ce:	00 00                	add    %al,(%rax)
   1400051d0:	70 61                	jo     140005233 <.pdata+0x53>
	...

00000001400051d4 <.pdata>:
   1400051d4:	60                   	(bad)
   1400051d5:	25 00 00 92 25       	and    $0x25920000,%eax
   1400051da:	00 00                	add    %al,(%rax)
   1400051dc:	78 61                	js     14000523f <.pdata+0x5f>
	...

00000001400051e0 <.pdata>:
   1400051e0:	a0 25 00 00 a3 25 00 	movabs 0x80000025a3000025,%al
   1400051e7:	00 80 
   1400051e9:	61                   	(bad)
   1400051ea:	00 00                	add    %al,(%rax)
   1400051ec:	b0 25                	mov    $0x25,%al
   1400051ee:	00 00                	add    %al,(%rax)
   1400051f0:	1a 26                	sbb    (%rsi),%ah
   1400051f2:	00 00                	add    %al,(%rax)
   1400051f4:	84 61 00             	test   %ah,0x0(%rcx)
   1400051f7:	00 20                	add    %ah,(%rax)
   1400051f9:	26 00 00             	es add %al,(%rax)
   1400051fc:	8a 26                	mov    (%rsi),%ah
   1400051fe:	00 00                	add    %al,(%rax)
   140005200:	94                   	xchg   %eax,%esp
   140005201:	61                   	(bad)
   140005202:	00 00                	add    %al,(%rax)
   140005204:	90                   	nop
   140005205:	26 00 00             	es add %al,(%rax)
   140005208:	ae                   	scas   %es:(%rdi),%al
   140005209:	26 00 00             	es add %al,(%rax)
   14000520c:	a4                   	movsb  %ds:(%rsi),%es:(%rdi)
   14000520d:	61                   	(bad)
   14000520e:	00 00                	add    %al,(%rax)
   140005210:	b0 26                	mov    $0x26,%al
   140005212:	00 00                	add    %al,(%rax)
   140005214:	c5 26 00             	(bad)
   140005217:	00 ac 61 00 00 d0 26 	add    %ch,0x26d00000(%rcx,%riz,2)
   14000521e:	00 00                	add    %al,(%rax)
   140005220:	fe                   	(bad)
   140005221:	26 00 00             	es add %al,(%rax)
   140005224:	b0 61                	mov    $0x61,%al
   140005226:	00 00                	add    %al,(%rax)
   140005228:	00 27                	add    %ah,(%rdi)
   14000522a:	00 00                	add    %al,(%rax)
   14000522c:	35 27 00 00 b8       	xor    $0xb8000027,%eax
   140005231:	61                   	(bad)
   140005232:	00 00                	add    %al,(%rax)
   140005234:	40 27                	rex (bad)
   140005236:	00 00                	add    %al,(%rax)
   140005238:	76 27                	jbe    140005261 <.pdata.startup+0x15>
   14000523a:	00 00                	add    %al,(%rax)
   14000523c:	c0 61 00 00          	shlb   $0x0,0x0(%rcx)
   140005240:	80 27 00             	andb   $0x0,(%rdi)
   140005243:	00 b6 27 00 00 c8    	add    %dh,-0x37ffffd9(%rsi)
   140005249:	61                   	(bad)
	...

000000014000524c <.pdata.startup>:
   14000524c:	60                   	(bad)
   14000524d:	29 00                	sub    %eax,(%rax)
   14000524f:	00 65 29             	add    %ah,0x29(%rbp)
   140005252:	00 00                	add    %al,(%rax)
   140005254:	d0 61 00             	shlb   0x0(%rcx)
	...

Disassembly of section .xdata:

0000000140006000 <.xdata>:
   140006000:	01 00                	add    %eax,(%rax)
   140006002:	00 00                	add    %al,(%rax)
   140006004:	01 04 01             	add    %eax,(%rcx,%rax,1)
   140006007:	00 04 42             	add    %al,(%rdx,%rax,2)
   14000600a:	00 00                	add    %al,(%rax)
   14000600c:	01 04 01             	add    %eax,(%rcx,%rax,1)
   14000600f:	00 04 62             	add    %al,(%rdx,%riz,2)
   140006012:	00 00                	add    %al,(%rax)
   140006014:	01 0a                	add    %ecx,(%rdx)
   140006016:	06                   	(bad)
   140006017:	00 0a                	add    %cl,(%rdx)
   140006019:	32 06                	xor    (%rsi),%al
   14000601b:	30 05 60 04 70 03    	xor    %al,0x3700460(%rip)        # 143706481 <.debug_rnglists+0x36e33b7>
   140006021:	50                   	push   %rax
   140006022:	02 c0                	add    %al,%al
   140006024:	09 04 01             	or     %eax,(%rcx,%rax,1)
   140006027:	00 04 42             	add    %al,(%rdx,%rax,2)
   14000602a:	00 00                	add    %al,(%rax)
   14000602c:	c0 28 00             	shrb   $0x0,(%rax)
   14000602f:	00 01                	add    %al,(%rcx)
   140006031:	00 00                	add    %al,(%rax)
   140006033:	00 d4                	add    %dl,%ah
   140006035:	13 00                	adc    (%rax),%eax
   140006037:	00 e7                	add    %ah,%bh
   140006039:	13 00                	adc    (%rax),%eax
   14000603b:	00 d0                	add    %dl,%al
   14000603d:	1c 00                	sbb    $0x0,%al
   14000603f:	00 e7                	add    %ah,%bh
   140006041:	13 00                	adc    (%rax),%eax
   140006043:	00 09                	add    %cl,(%rcx)
   140006045:	04 01                	add    $0x1,%al
   140006047:	00 04 42             	add    %al,(%rdx,%rax,2)
   14000604a:	00 00                	add    %al,(%rax)
   14000604c:	c0 28 00             	shrb   $0x0,(%rax)
   14000604f:	00 01                	add    %al,(%rcx)
   140006051:	00 00                	add    %al,(%rax)
   140006053:	00 f4                	add    %dh,%ah
   140006055:	13 00                	adc    (%rax),%eax
   140006057:	00 07                	add    %al,(%rdi)
   140006059:	14 00                	adc    $0x0,%al
   14000605b:	00 d0                	add    %dl,%al
   14000605d:	1c 00                	sbb    $0x0,%al
   14000605f:	00 07                	add    %al,(%rdi)
   140006061:	14 00                	adc    $0x0,%al
   140006063:	00 01                	add    %al,(%rcx)
   140006065:	04 01                	add    $0x1,%al
   140006067:	00 04 42             	add    %al,(%rdx,%rax,2)
	...

000000014000606c <.xdata>:
   14000606c:	01 00                	add    %eax,(%rax)
   14000606e:	00 00                	add    %al,(%rax)
   140006070:	01 00                	add    %eax,(%rax)
	...

0000000140006074 <.xdata>:
   140006074:	01 08                	add    %ecx,(%rax)
   140006076:	03 05 08 32 04 03    	add    0x3043208(%rip),%eax        # 143049284 <.debug_rnglists+0x30261ba>
   14000607c:	01 50 00             	add    %edx,0x0(%rax)
	...

0000000140006080 <.xdata>:
   140006080:	01 04 01             	add    %eax,(%rcx,%rax,1)
   140006083:	00 04 42             	add    %al,(%rdx,%rax,2)
   140006086:	00 00                	add    %al,(%rax)
   140006088:	01 06                	add    %eax,(%rsi)
   14000608a:	03 00                	add    (%rax),%eax
   14000608c:	06                   	(bad)
   14000608d:	42 02 30             	rex.X add (%rax),%sil
   140006090:	01 60 00             	add    %esp,0x0(%rax)
   140006093:	00 01                	add    %al,(%rcx)
   140006095:	00 00                	add    %al,(%rax)
	...

0000000140006098 <.xdata>:
   140006098:	01 00                	add    %eax,(%rax)
	...

000000014000609c <.xdata>:
   14000609c:	01 04 01             	add    %eax,(%rcx,%rax,1)
   14000609f:	00 04 42             	add    %al,(%rdx,%rax,2)
   1400060a2:	00 00                	add    %al,(%rax)
   1400060a4:	01 06                	add    %eax,(%rsi)
   1400060a6:	03 00                	add    (%rax),%eax
   1400060a8:	06                   	(bad)
   1400060a9:	42 02 30             	rex.X add (%rax),%sil
   1400060ac:	01 60 00             	add    %esp,0x0(%rax)
   1400060af:	00 01                	add    %al,(%rcx)
   1400060b1:	00 00                	add    %al,(%rax)
	...

00000001400060b4 <.xdata>:
   1400060b4:	01 16                	add    %edx,(%rsi)
   1400060b6:	09 00                	or     %eax,(%rax)
   1400060b8:	16                   	(bad)
   1400060b9:	88 06                	mov    %al,(%rsi)
   1400060bb:	00 10                	add    %dl,(%rax)
   1400060bd:	78 05                	js     1400060c4 <.xdata+0x10>
   1400060bf:	00 0b                	add    %cl,(%rbx)
   1400060c1:	68 04 00 06 e2       	push   $0xffffffffe2060004
   1400060c6:	02 30                	add    (%rax),%dh
   1400060c8:	01 60 00             	add    %esp,0x0(%rax)
	...

00000001400060cc <.xdata>:
   1400060cc:	01 00                	add    %eax,(%rax)
	...

00000001400060d0 <.xdata>:
   1400060d0:	01 06                	add    %eax,(%rsi)
   1400060d2:	03 00                	add    (%rax),%eax
   1400060d4:	06                   	(bad)
   1400060d5:	62 02                	(bad)
   1400060d7:	30 01                	xor    %al,(%rcx)
   1400060d9:	60                   	(bad)
   1400060da:	00 00                	add    %al,(%rax)
   1400060dc:	01 07                	add    %eax,(%rdi)
   1400060de:	04 00                	add    $0x0,%al
   1400060e0:	07                   	(bad)
   1400060e1:	92                   	xchg   %eax,%edx
   1400060e2:	03 30                	add    (%rax),%esi
   1400060e4:	02 60 01             	add    0x1(%rax),%ah
   1400060e7:	70 01                	jo     1400060ea <.xdata+0x1a>
   1400060e9:	15 0a 45 15 03       	adc    $0x315450a,%eax
   1400060ee:	10 82 0c 30 0b 60    	adc    %al,0x600b300c(%rdx)
   1400060f4:	0a 70 09             	or     0x9(%rax),%dh
   1400060f7:	c0 07 d0             	rolb   $0xd0,(%rdi)
   1400060fa:	05 e0 03 f0 01       	add    $0x1f003e0,%eax
   1400060ff:	50                   	push   %rax

0000000140006100 <.xdata>:
   140006100:	01 04 01             	add    %eax,(%rcx,%rax,1)
   140006103:	00 04 a2             	add    %al,(%rdx,%riz,4)
   140006106:	00 00                	add    %al,(%rax)
   140006108:	01 00                	add    %eax,(%rax)
	...

000000014000610c <.xdata>:
   14000610c:	01 05 02 00 05 32    	add    %eax,0x32050002(%rip)        # 172056114 <.debug_rnglists+0x3203304a>
   140006112:	01 30                	add    %esi,(%rax)

0000000140006114 <.xdata>:
   140006114:	01 0a                	add    %ecx,(%rdx)
   140006116:	06                   	(bad)
   140006117:	00 0a                	add    %cl,(%rdx)
   140006119:	32 06                	xor    (%rsi),%al
   14000611b:	30 05 60 04 70 03    	xor    %al,0x3700460(%rip)        # 143706581 <.debug_rnglists+0x36e34b7>
   140006121:	50                   	push   %rax
   140006122:	02 c0                	add    %al,%al
   140006124:	01 07                	add    %eax,(%rdi)
   140006126:	04 00                	add    $0x0,%al
   140006128:	07                   	(bad)
   140006129:	32 03                	xor    (%rbx),%al
   14000612b:	30 02                	xor    %al,(%rdx)
   14000612d:	60                   	(bad)
   14000612e:	01 70 01             	add    %esi,0x1(%rax)
   140006131:	06                   	(bad)
   140006132:	03 00                	add    (%rax),%eax
   140006134:	06                   	(bad)
   140006135:	42 02 30             	rex.X add (%rax),%sil
   140006138:	01 60 00             	add    %esp,0x0(%rax)
   14000613b:	00 01                	add    %al,(%rcx)
   14000613d:	05 02 00 05 32       	add    $0x32050002,%eax
   140006142:	01 30                	add    %esi,(%rax)

0000000140006144 <.xdata>:
   140006144:	01 00                	add    %eax,(%rax)
   140006146:	00 00                	add    %al,(%rax)
   140006148:	01 00                	add    %eax,(%rax)
   14000614a:	00 00                	add    %al,(%rax)
   14000614c:	01 07                	add    %eax,(%rdi)
   14000614e:	04 00                	add    $0x0,%al
   140006150:	07                   	(bad)
   140006151:	32 03                	xor    (%rbx),%al
   140006153:	30 02                	xor    %al,(%rdx)
   140006155:	60                   	(bad)
   140006156:	01 70 01             	add    %esi,0x1(%rax)
   140006159:	00 00                	add    %al,(%rax)
   14000615b:	00 01                	add    %al,(%rcx)
   14000615d:	00 00                	add    %al,(%rax)
   14000615f:	00 01                	add    %al,(%rcx)
   140006161:	00 00                	add    %al,(%rax)
   140006163:	00 01                	add    %al,(%rcx)
   140006165:	00 00                	add    %al,(%rax)
   140006167:	00 01                	add    %al,(%rcx)
   140006169:	00 00                	add    %al,(%rax)
   14000616b:	00 01                	add    %al,(%rcx)
   14000616d:	00 00                	add    %al,(%rax)
	...

0000000140006170 <.xdata>:
   140006170:	01 04 01             	add    %eax,(%rcx,%rax,1)
   140006173:	00 04 62             	add    %al,(%rdx,%riz,2)
	...

0000000140006178 <.xdata>:
   140006178:	01 04 01             	add    %eax,(%rcx,%rax,1)
   14000617b:	00 04 82             	add    %al,(%rdx,%rax,4)
	...

0000000140006180 <.xdata>:
   140006180:	01 00                	add    %eax,(%rax)
   140006182:	00 00                	add    %al,(%rax)
   140006184:	01 0a                	add    %ecx,(%rdx)
   140006186:	06                   	(bad)
   140006187:	00 0a                	add    %cl,(%rdx)
   140006189:	32 06                	xor    (%rsi),%al
   14000618b:	30 05 60 04 70 03    	xor    %al,0x3700460(%rip)        # 1437065f1 <.debug_rnglists+0x36e3527>
   140006191:	50                   	push   %rax
   140006192:	02 c0                	add    %al,%al
   140006194:	01 0a                	add    %ecx,(%rdx)
   140006196:	06                   	(bad)
   140006197:	00 0a                	add    %cl,(%rdx)
   140006199:	32 06                	xor    (%rsi),%al
   14000619b:	30 05 60 04 70 03    	xor    %al,0x3700460(%rip)        # 143706601 <.debug_rnglists+0x36e3537>
   1400061a1:	50                   	push   %rax
   1400061a2:	02 c0                	add    %al,%al
   1400061a4:	01 05 02 00 05 32    	add    %eax,0x32050002(%rip)        # 1720561ac <.debug_rnglists+0x320330e2>
   1400061aa:	01 30                	add    %esi,(%rax)
   1400061ac:	01 00                	add    %eax,(%rax)
   1400061ae:	00 00                	add    %al,(%rax)
   1400061b0:	01 05 02 00 05 32    	add    %eax,0x32050002(%rip)        # 1720561b8 <.debug_rnglists+0x320330ee>
   1400061b6:	01 30                	add    %esi,(%rax)
   1400061b8:	01 04 01             	add    %eax,(%rcx,%rax,1)
   1400061bb:	00 04 82             	add    %al,(%rdx,%rax,4)
   1400061be:	00 00                	add    %al,(%rax)
   1400061c0:	01 04 01             	add    %eax,(%rcx,%rax,1)
   1400061c3:	00 04 42             	add    %al,(%rdx,%rax,2)
   1400061c6:	00 00                	add    %al,(%rax)
   1400061c8:	01 04 01             	add    %eax,(%rcx,%rax,1)
   1400061cb:	00 04 42             	add    %al,(%rdx,%rax,2)
	...

00000001400061d0 <.xdata.startup>:
   1400061d0:	01 00                	add    %eax,(%rax)
	...

Disassembly of section .idata:

0000000140008000 <_head_lib64_libkernel32_a>:
   140008000:	c8 80 00 00          	enter  $0x80,$0x0
	...
   14000800c:	c8 87 00 00          	enter  $0x87,$0x0
   140008010:	98                   	cwtl
   140008011:	82                   	(bad)
	...

0000000140008014 <_head_lib64_libapi_ms_win_crt_environment_l1_1_0_a>:
   140008014:	20 81 00 00 00 00    	and    %al,0x0(%rcx)
   14000801a:	00 00                	add    %al,(%rax)
   14000801c:	00 00                	add    %al,(%rax)
   14000801e:	00 00                	add    %al,(%rax)
   140008020:	e0 87                	loopne 140007fa9 <__bss_end__+0xe29>
   140008022:	00 00                	add    %al,(%rax)
   140008024:	f0 82                	lock (bad)
	...

0000000140008028 <_head_lib64_libapi_ms_win_crt_heap_l1_1_0_a>:
   140008028:	38 81 00 00 00 00    	cmp    %al,0x0(%rcx)
   14000802e:	00 00                	add    %al,(%rax)
   140008030:	00 00                	add    %al,(%rax)
   140008032:	00 00                	add    %al,(%rax)
   140008034:	18 88 00 00 08 83    	sbb    %cl,-0x7cf80000(%rax)
	...

000000014000803c <_head_lib64_libapi_ms_win_crt_math_l1_1_0_a>:
   14000803c:	60                   	(bad)
   14000803d:	81 00 00 00 00 00    	addl   $0x0,(%rax)
   140008043:	00 00                	add    %al,(%rax)
   140008045:	00 00                	add    %al,(%rax)
   140008047:	00 3c 88             	add    %bh,(%rax,%rcx,4)
   14000804a:	00 00                	add    %al,(%rax)
   14000804c:	30 83 00 00      	xor    %al,-0x7e900000(%rbx)

0000000140008050 <_head_lib64_libapi_ms_win_crt_private_l1_1_0_a>:
   140008050:	70 81                	jo     140007fd3 <__bss_end__+0xe53>
	...
   14000805a:	00 00                	add    %al,(%rax)
   14000805c:	64 88 00             	mov    %al,%fs:(%rax)
   14000805f:	00 40 83             	add    %al,-0x7d(%rax)
	...

0000000140008064 <_head_lib64_libapi_ms_win_crt_runtime_l1_1_0_a>:
   140008064:	88 81 00 00 00 00    	mov    %al,0x0(%rcx)
   14000806a:	00 00                	add    %al,(%rax)
   14000806c:	00 00                	add    %al,(%rax)
   14000806e:	00 00                	add    %al,(%rax)
   140008070:	cc                   	int3
   140008071:	88 00                	mov    %al,(%rax)
   140008073:	00 58 83             	add    %bl,-0x7d(%rax)
	...

0000000140008078 <_head_lib64_libapi_ms_win_crt_stdio_l1_1_0_a>:
   140008078:	18 82 00 00 00 00    	sbb    %al,0x0(%rdx)
   14000807e:	00 00                	add    %al,(%rax)
   140008080:	00 00                	add    %al,(%rax)
   140008082:	00 00                	add    %al,(%rax)
   140008084:	0c 89                	or     $0x89,%al
   140008086:	00 00                	add    %al,(%rax)
   140008088:	e8 83 00 00        	call   198008110 <.debug_rnglists+0x57fe5046>

000000014000808c <_head_lib64_libapi_ms_win_crt_string_l1_1_0_a>:
   14000808c:	58                   	pop    %rax
   14000808d:	82                   	(bad)
	...
   140008096:	00 00                	add    %al,(%rax)
   140008098:	34 89                	xor    $0x89,%al
   14000809a:	00 00                	add    %al,(%rax)
   14000809c:	28 84 00 00    	sub    %al,0x827000(%rax,%rax,1)

00000001400080a0 <_head_lib64_libapi_ms_win_crt_time_l1_1_0_a>:
   1400080a0:	70 82                	jo     140008024 <_head_lib64_libapi_ms_win_crt_environment_l1_1_0_a+0x10>
	...
   1400080aa:	00 00                	add    %al,(%rax)
   1400080ac:	68 89 00 00 40       	push   $0x40000089
   1400080b1:	84 00                	test   %al,(%rax)
	...

00000001400080c8 <hname>:
   1400080c8:	68 84 00 00 00       	push   $0x84
   1400080cd:	00 00                	add    %al,(%rax)
	...

00000001400080d0 <.idata$4>:
   1400080d0:	80 84 00 00 00 00 00 	addb   $0x0,0x0(%rax,%rax,1)
   1400080d7:	00 

00000001400080d8 <.idata$4>:
   1400080d8:	98                   	cwtl
   1400080d9:	84 00                	test   %al,(%rax)
   1400080db:	00 00                	add    %al,(%rax)
   1400080dd:	00 00                	add    %al,(%rax)
	...

00000001400080e0 <.idata$4>:
   1400080e0:	a8 84                	test   $0x84,%al
   1400080e2:	00 00                	add    %al,(%rax)
   1400080e4:	00 00                	add    %al,(%rax)
	...

00000001400080e8 <.idata$4>:
   1400080e8:	c4                   	(bad)
   1400080e9:	84 00                	test   %al,(%rax)
   1400080eb:	00 00                	add    %al,(%rax)
   1400080ed:	00 00                	add    %al,(%rax)
	...

00000001400080f0 <.idata$4>:
   1400080f0:	dc 84 00 00 00 00 00 	faddl  0x0(%rax,%rax,1)
	...

00000001400080f8 <.idata$4>:
   1400080f8:	fa                   	cli
   1400080f9:	84 00                	test   %al,(%rax)
   1400080fb:	00 00                	add    %al,(%rax)
   1400080fd:	00 00                	add    %al,(%rax)
	...

0000000140008100 <.idata$4>:
   140008100:	02 85 00 00 00 00    	add    0x0(%rbp),%al
	...

0000000140008108 <.idata$4>:
   140008108:	10 85 00 00 00 00    	adc    %al,0x0(%rbp)
	...

0000000140008110 <.idata$4>:
   140008110:	22 85 00 00 00 00    	and    0x0(%rbp),%al
	...

0000000140008118 <.idata$4>:
	...

0000000140008120 <hname>:
   140008120:	32 85 00 00 00 00    	xor    0x0(%rbp),%al
	...

0000000140008128 <.idata$4>:
   140008128:	42 85 00             	rex.X test %eax,(%rax)
   14000812b:	00 00                	add    %al,(%rax)
   14000812d:	00 00                	add    %al,(%rax)
	...

0000000140008130 <.idata$4>:
	...

0000000140008138 <hname>:
   140008138:	52                   	push   %rdx
   140008139:	85 00                	test   %eax,(%rax)
   14000813b:	00 00                	add    %al,(%rax)
   14000813d:	00 00                	add    %al,(%rax)
	...

0000000140008140 <.idata$4>:
   140008140:	62 85                	(bad)
   140008142:	00 00                	add    %al,(%rax)
   140008144:	00 00                	add    %al,(%rax)
	...

0000000140008148 <.idata$4>:
   140008148:	6c                   	insb   (%dx),%es:(%rdi)
   140008149:	85 00                	test   %eax,(%rax)
   14000814b:	00 00                	add    %al,(%rax)
   14000814d:	00 00                	add    %al,(%rax)
	...

0000000140008150 <.idata$4>:
   140008150:	74 85                	je     1400080d7 <.idata$4+0x7>
   140008152:	00 00                	add    %al,(%rax)
   140008154:	00 00                	add    %al,(%rax)
	...

0000000140008158 <.idata$4>:
	...

0000000140008160 <hname>:
   140008160:	7e 85                	jle    1400080e7 <.idata$4+0x7>
   140008162:	00 00                	add    %al,(%rax)
   140008164:	00 00                	add    %al,(%rax)
	...

0000000140008168 <.idata$4>:
	...

0000000140008170 <hname>:
   140008170:	92                   	xchg   %eax,%edx
   140008171:	85 00                	test   %eax,(%rax)
   140008173:	00 00                	add    %al,(%rax)
   140008175:	00 00                	add    %al,(%rax)
	...

0000000140008178 <.idata$4>:
   140008178:	aa                   	stos   %al,%es:(%rdi)
   140008179:	85 00                	test   %eax,(%rax)
   14000817b:	00 00                	add    %al,(%rax)
   14000817d:	00 00                	add    %al,(%rax)
	...

0000000140008180 <.idata$4>:
	...

0000000140008188 <hname>:
   140008188:	b4 85                	mov    $0x85,%ah
   14000818a:	00 00                	add    %al,(%rax)
   14000818c:	00 00                	add    %al,(%rax)
	...

0000000140008190 <.idata$4>:
   140008190:	c2 85 00             	ret    $0x85
   140008193:	00 00                	add    %al,(%rax)
   140008195:	00 00                	add    %al,(%rax)
	...

0000000140008198 <.idata$4>:
   140008198:	d0 85 00 00 00 00    	rolb   0x0(%rbp)
	...

00000001400081a0 <.idata$4>:
   1400081a0:	de 85 00 00 00 00    	fiadds 0x0(%rbp)
	...

00000001400081a8 <.idata$4>:
   1400081a8:	e8 85 00 00 00       	call   140008232 <.idata$4+0x2>
   1400081ad:	00 00                	add    %al,(%rax)
	...

00000001400081b0 <.idata$4>:
   1400081b0:	02 86 00 00 00 00    	add    0x0(%rsi),%al
	...

00000001400081b8 <.idata$4>:
   1400081b8:	1a 86 00 00 00 00    	sbb    0x0(%rsi),%al
	...

00000001400081c0 <.idata$4>:
   1400081c0:	30 86 00 00 00 00    	xor    %al,0x0(%rsi)
	...

00000001400081c8 <.idata$4>:
   1400081c8:	3e 86 00             	ds xchg %al,(%rax)
   1400081cb:	00 00                	add    %al,(%rax)
   1400081cd:	00 00                	add    %al,(%rax)
	...

00000001400081d0 <.idata$4>:
   1400081d0:	46 86 00             	rex.RX xchg %r8b,(%rax)
   1400081d3:	00 00                	add    %al,(%rax)
   1400081d5:	00 00                	add    %al,(%rax)
	...

00000001400081d8 <.idata$4>:
   1400081d8:	68 86 00 00 00       	push   $0x86
   1400081dd:	00 00                	add    %al,(%rax)
	...

00000001400081e0 <.idata$4>:
   1400081e0:	88 86 00 00 00 00    	mov    %al,0x0(%rsi)
	...

00000001400081e8 <.idata$4>:
   1400081e8:	94                   	xchg   %eax,%esp
   1400081e9:	86 00                	xchg   %al,(%rax)
   1400081eb:	00 00                	add    %al,(%rax)
   1400081ed:	00 00                	add    %al,(%rax)
	...

00000001400081f0 <.idata$4>:
   1400081f0:	a4                   	movsb  %ds:(%rsi),%es:(%rdi)
   1400081f1:	86 00                	xchg   %al,(%rax)
   1400081f3:	00 00                	add    %al,(%rax)
   1400081f5:	00 00                	add    %al,(%rax)
	...

00000001400081f8 <.idata$4>:
   1400081f8:	c6 86 00 00 00 00 00 	movb   $0x0,0x0(%rsi)
	...

0000000140008200 <.idata$4>:
   140008200:	ce                   	(bad)
   140008201:	86 00                	xchg   %al,(%rax)
   140008203:	00 00                	add    %al,(%rax)
   140008205:	00 00                	add    %al,(%rax)
	...

0000000140008208 <.idata$4>:
   140008208:	d6                   	(bad)
   140008209:	86 00                	xchg   %al,(%rax)
   14000820b:	00 00                	add    %al,(%rax)
   14000820d:	00 00                	add    %al,(%rax)
	...

0000000140008210 <.idata$4>:
	...

0000000140008218 <hname>:
   140008218:	e0 86                	loopne 1400081a0 <.idata$4>
   14000821a:	00 00                	add    %al,(%rax)
   14000821c:	00 00                	add    %al,(%rax)
	...

0000000140008220 <.idata$4>:
   140008220:	f2 86 00             	xacquire xchg %al,(%rax)
   140008223:	00 00                	add    %al,(%rax)
   140008225:	00 00                	add    %al,(%rax)
	...

0000000140008228 <.idata$4>:
   140008228:	02 87 00 00 00 00    	add    0x0(%rdi),%al
	...

0000000140008230 <.idata$4>:
   140008230:	10 87 00 00 00 00    	adc    %al,0x0(%rdi)
	...

0000000140008238 <.idata$4>:
   140008238:	2a 87 00 00 00 00    	sub    0x0(%rdi),%al
	...

0000000140008240 <.idata$4>:
   140008240:	46 87 00             	rex.RX xchg %r8d,(%rax)
   140008243:	00 00                	add    %al,(%rax)
   140008245:	00 00                	add    %al,(%rax)
	...

0000000140008248 <.idata$4>:
   140008248:	50                   	push   %rax
   140008249:	87 00                	xchg   %eax,(%rax)
   14000824b:	00 00                	add    %al,(%rax)
   14000824d:	00 00                	add    %al,(%rax)
	...

0000000140008250 <.idata$4>:
	...

0000000140008258 <hname>:
   140008258:	58                   	pop    %rax
   140008259:	87 00                	xchg   %eax,(%rax)
   14000825b:	00 00                	add    %al,(%rax)
   14000825d:	00 00                	add    %al,(%rax)
	...

0000000140008260 <.idata$4>:
   140008260:	62                   	(bad)
   140008261:	87 00                	xchg   %eax,(%rax)
   140008263:	00 00                	add    %al,(%rax)
   140008265:	00 00                	add    %al,(%rax)
	...

0000000140008268 <.idata$4>:
	...

0000000140008270 <hname>:
   140008270:	6c                   	insb   (%dx),%es:(%rdi)
   140008271:	87 00                	xchg   %eax,(%rax)
   140008273:	00 00                	add    %al,(%rax)
   140008275:	00 00                	add    %al,(%rax)
	...

0000000140008278 <.idata$4>:
   140008278:	7a 87                	jp     140008201 <.idata$4+0x1>
   14000827a:	00 00                	add    %al,(%rax)
   14000827c:	00 00                	add    %al,(%rax)
	...

0000000140008280 <.idata$4>:
   140008280:	88 87 00 00 00 00    	mov    %al,0x0(%rdi)
	...

0000000140008288 <.idata$4>:
   140008288:	94                   	xchg   %eax,%esp
   140008289:	87 00                	xchg   %eax,(%rax)
   14000828b:	00 00                	add    %al,(%rax)
   14000828d:	00 00                	add    %al,(%rax)
	...

0000000140008290 <.idata$4>:
	...

0000000140008298 <__IAT_start__>:
   140008298:	68 84 00 00 00       	push   $0x84
   14000829d:	00 00                	add    %al,(%rax)
	...

00000001400082a0 <__imp_EnterCriticalSection>:
   1400082a0:	80 84 00 00 00 00 00 	addb   $0x0,0x0(%rax,%rax,1)
   1400082a7:	00 

00000001400082a8 <__imp_GetLastError>:
   1400082a8:	98                   	cwtl
   1400082a9:	84 00                	test   %al,(%rax)
   1400082ab:	00 00                	add    %al,(%rax)
   1400082ad:	00 00                	add    %al,(%rax)
	...

00000001400082b0 <__imp_InitializeCriticalSection>:
   1400082b0:	a8 84                	test   $0x84,%al
   1400082b2:	00 00                	add    %al,(%rax)
   1400082b4:	00 00                	add    %al,(%rax)
	...

00000001400082b8 <__imp_LeaveCriticalSection>:
   1400082b8:	c4                   	(bad)
   1400082b9:	84 00                	test   %al,(%rax)
   1400082bb:	00 00                	add    %al,(%rax)
   1400082bd:	00 00                	add    %al,(%rax)
	...

00000001400082c0 <__imp_SetUnhandledExceptionFilter>:
   1400082c0:	dc 84 00 00 00 00 00 	faddl  0x0(%rax,%rax,1)
	...

00000001400082c8 <__imp_Sleep>:
   1400082c8:	fa                   	cli
   1400082c9:	84 00                	test   %al,(%rax)
   1400082cb:	00 00                	add    %al,(%rax)
   1400082cd:	00 00                	add    %al,(%rax)
	...

00000001400082d0 <__imp_TlsGetValue>:
   1400082d0:	02 85 00 00 00 00    	add    0x0(%rbp),%al
	...

00000001400082d8 <__imp_VirtualProtect>:
   1400082d8:	10 85 00 00 00 00    	adc    %al,0x0(%rbp)
	...

00000001400082e0 <__imp_VirtualQuery>:
   1400082e0:	22 85 00 00 00 00    	and    0x0(%rbp),%al
	...

00000001400082e8 <.idata$5>:
	...

00000001400082f0 <__imp___p__environ>:
   1400082f0:	32 85 00 00 00 00    	xor    0x0(%rbp),%al
	...

00000001400082f8 <__imp___p__wenviron>:
   1400082f8:	42 85 00             	rex.X test %eax,(%rax)
   1400082fb:	00 00                	add    %al,(%rax)
   1400082fd:	00 00                	add    %al,(%rax)
	...

0000000140008300 <.idata$5>:
	...

0000000140008308 <__imp__set_new_mode>:
   140008308:	52                   	push   %rdx
   140008309:	85 00                	test   %eax,(%rax)
   14000830b:	00 00                	add    %al,(%rax)
   14000830d:	00 00                	add    %al,(%rax)
	...

0000000140008310 <__imp_calloc>:
   140008310:	62 85                	(bad)
   140008312:	00 00                	add    %al,(%rax)
   140008314:	00 00                	add    %al,(%rax)
	...

0000000140008318 <__imp_free>:
   140008318:	6c                   	insb   (%dx),%es:(%rdi)
   140008319:	85 00                	test   %eax,(%rax)
   14000831b:	00 00                	add    %al,(%rax)
   14000831d:	00 00                	add    %al,(%rax)
	...

0000000140008320 <__imp_malloc>:
   140008320:	74 85                	je     1400082a7 <__imp_EnterCriticalSection+0x7>
   140008322:	00 00                	add    %al,(%rax)
   140008324:	00 00                	add    %al,(%rax)
	...

0000000140008328 <.idata$5>:
	...

0000000140008330 <__imp___setusermatherr>:
   140008330:	7e 85                	jle    1400082b7 <__imp_InitializeCriticalSection+0x7>
   140008332:	00 00                	add    %al,(%rax)
   140008334:	00 00                	add    %al,(%rax)
	...

0000000140008338 <.idata$5>:
	...

0000000140008340 <__imp___C_specific_handler>:
   140008340:	92                   	xchg   %eax,%edx
   140008341:	85 00                	test   %eax,(%rax)
   140008343:	00 00                	add    %al,(%rax)
   140008345:	00 00                	add    %al,(%rax)
	...

0000000140008348 <__imp_memcpy>:
   140008348:	aa                   	stos   %al,%es:(%rdi)
   140008349:	85 00                	test   %eax,(%rax)
   14000834b:	00 00                	add    %al,(%rax)
   14000834d:	00 00                	add    %al,(%rax)
	...

0000000140008350 <.idata$5>:
	...

0000000140008358 <__imp___p___argc>:
   140008358:	b4 85                	mov    $0x85,%ah
   14000835a:	00 00                	add    %al,(%rax)
   14000835c:	00 00                	add    %al,(%rax)
	...

0000000140008360 <__imp___p___argv>:
   140008360:	c2 85 00             	ret    $0x85
   140008363:	00 00                	add    %al,(%rax)
   140008365:	00 00                	add    %al,(%rax)
	...

0000000140008368 <__imp___p___wargv>:
   140008368:	d0 85 00 00 00 00    	rolb   0x0(%rbp)
	...

0000000140008370 <__imp__cexit>:
   140008370:	de 85 00 00 00 00    	fiadds 0x0(%rbp)
	...

0000000140008378 <__imp__configure_narrow_argv>:
   140008378:	e8 85 00 00 00       	call   140008402 <__imp___stdio_common_vfprintf+0x2>
   14000837d:	00 00                	add    %al,(%rax)
	...

0000000140008380 <__imp__configure_wide_argv>:
   140008380:	02 86 00 00 00 00    	add    0x0(%rsi),%al
	...

0000000140008388 <__imp__crt_at_quick_exit>:
   140008388:	1a 86 00 00 00 00    	sbb    0x0(%rsi),%al
	...

0000000140008390 <__imp__crt_atexit>:
   140008390:	30 86 00 00 00 00    	xor    %al,0x0(%rsi)
	...

0000000140008398 <__imp__exit>:
   140008398:	3e 86 00             	ds xchg %al,(%rax)
   14000839b:	00 00                	add    %al,(%rax)
   14000839d:	00 00                	add    %al,(%rax)
	...

00000001400083a0 <__imp__initialize_narrow_environment>:
   1400083a0:	46 86 00             	rex.RX xchg %r8b,(%rax)
   1400083a3:	00 00                	add    %al,(%rax)
   1400083a5:	00 00                	add    %al,(%rax)
	...

00000001400083a8 <__imp__initialize_wide_environment>:
   1400083a8:	68 86 00 00 00       	push   $0x86
   1400083ad:	00 00                	add    %al,(%rax)
	...

00000001400083b0 <__imp__initterm>:
   1400083b0:	88 86 00 00 00 00    	mov    %al,0x0(%rsi)
	...

00000001400083b8 <__imp___set_app_type>:
   1400083b8:	94                   	xchg   %eax,%esp
   1400083b9:	86 00                	xchg   %al,(%rax)
   1400083bb:	00 00                	add    %al,(%rax)
   1400083bd:	00 00                	add    %al,(%rax)
	...

00000001400083c0 <__imp__set_invalid_parameter_handler>:
   1400083c0:	a4                   	movsb  %ds:(%rsi),%es:(%rdi)
   1400083c1:	86 00                	xchg   %al,(%rax)
   1400083c3:	00 00                	add    %al,(%rax)
   1400083c5:	00 00                	add    %al,(%rax)
	...

00000001400083c8 <__imp_abort>:
   1400083c8:	c6 86 00 00 00 00 00 	movb   $0x0,0x0(%rsi)
	...

00000001400083d0 <__imp_exit>:
   1400083d0:	ce                   	(bad)
   1400083d1:	86 00                	xchg   %al,(%rax)
   1400083d3:	00 00                	add    %al,(%rax)
   1400083d5:	00 00                	add    %al,(%rax)
	...

00000001400083d8 <__imp_signal>:
   1400083d8:	d6                   	(bad)
   1400083d9:	86 00                	xchg   %al,(%rax)
   1400083db:	00 00                	add    %al,(%rax)
   1400083dd:	00 00                	add    %al,(%rax)
	...

00000001400083e0 <.idata$5>:
	...

00000001400083e8 <__imp___acrt_iob_func>:
   1400083e8:	e0 86                	loopne 140008370 <__imp__cexit>
   1400083ea:	00 00                	add    %al,(%rax)
   1400083ec:	00 00                	add    %al,(%rax)
	...

00000001400083f0 <__imp___p__commode>:
   1400083f0:	f2 86 00             	xacquire xchg %al,(%rax)
   1400083f3:	00 00                	add    %al,(%rax)
   1400083f5:	00 00                	add    %al,(%rax)
	...

00000001400083f8 <__imp___p__fmode>:
   1400083f8:	02 87 00 00 00 00    	add    0x0(%rdi),%al
	...

0000000140008400 <__imp___stdio_common_vfprintf>:
   140008400:	10 87 00 00 00 00    	adc    %al,0x0(%rdi)
	...

0000000140008408 <__imp___stdio_common_vfwprintf>:
   140008408:	2a 87 00 00 00 00    	sub    0x0(%rdi),%al
	...

0000000140008410 <__imp_fwrite>:
   140008410:	46 87 00             	rex.RX xchg %r8d,(%rax)
   140008413:	00 00                	add    %al,(%rax)
   140008415:	00 00                	add    %al,(%rax)
	...

0000000140008418 <__imp_puts>:
   140008418:	50                   	push   %rax
   140008419:	87 00                	xchg   %eax,(%rax)
   14000841b:	00 00                	add    %al,(%rax)
   14000841d:	00 00                	add    %al,(%rax)
	...

0000000140008420 <.idata$5>:
	...

0000000140008428 <__imp_strlen>:
   140008428:	58                   	pop    %rax
   140008429:	87 00                	xchg   %eax,(%rax)
   14000842b:	00 00                	add    %al,(%rax)
   14000842d:	00 00                	add    %al,(%rax)
	...

0000000140008430 <__imp_strncmp>:
   140008430:	62                   	(bad)
   140008431:	87 00                	xchg   %eax,(%rax)
   140008433:	00 00                	add    %al,(%rax)
   140008435:	00 00                	add    %al,(%rax)
	...

0000000140008438 <.idata$5>:
	...

0000000140008440 <__imp___daylight>:
   140008440:	6c                   	insb   (%dx),%es:(%rdi)
   140008441:	87 00                	xchg   %eax,(%rax)
   140008443:	00 00                	add    %al,(%rax)
   140008445:	00 00                	add    %al,(%rax)
	...

0000000140008448 <__imp___timezone>:
   140008448:	7a 87                	jp     1400083d1 <__imp_exit+0x1>
   14000844a:	00 00                	add    %al,(%rax)
   14000844c:	00 00                	add    %al,(%rax)
	...

0000000140008450 <__imp___tzname>:
   140008450:	88 87 00 00 00 00    	mov    %al,0x0(%rdi)
	...

0000000140008458 <__imp__tzset>:
   140008458:	94                   	xchg   %eax,%esp
   140008459:	87 00                	xchg   %eax,(%rax)
   14000845b:	00 00                	add    %al,(%rax)
   14000845d:	00 00                	add    %al,(%rax)
	...

0000000140008460 <.idata$5>:
	...

0000000140008468 <__IAT_end__>:
   140008468:	25 01 44 65 6c       	and    $0x6c654401,%eax
   14000846d:	65 74 65             	gs je  1400084d5 <.idata$6+0x11>
   140008470:	43 72 69             	rex.XB jb 1400084dc <.idata$6>
   140008473:	74 69                	je     1400084de <.idata$6+0x2>
   140008475:	63 61 6c             	movsxd 0x6c(%rcx),%esp
   140008478:	53                   	push   %rbx
   140008479:	65 63 74 69 6f       	movsxd %gs:0x6f(%rcx,%rbp,2),%esi
   14000847e:	6e                   	outsb  %ds:(%rsi),(%dx)
	...

0000000140008480 <.idata$6>:
   140008480:	4b 01 45 6e          	rex.WXB add %rax,0x6e(%r13)
   140008484:	74 65                	je     1400084eb <.idata$6+0xf>
   140008486:	72 43                	jb     1400084cb <.idata$6+0x7>
   140008488:	72 69                	jb     1400084f3 <.idata$6+0x17>
   14000848a:	74 69                	je     1400084f5 <.idata$6+0x19>
   14000848c:	63 61 6c             	movsxd 0x6c(%rcx),%esp
   14000848f:	53                   	push   %rbx
   140008490:	65 63 74 69 6f       	movsxd %gs:0x6f(%rcx,%rbp,2),%esi
   140008495:	6e                   	outsb  %ds:(%rsi),(%dx)
	...

0000000140008498 <.idata$6>:
   140008498:	84 02                	test   %al,(%rdx)
   14000849a:	47                   	rex.RXB
   14000849b:	65 74 4c             	gs je  1400084ea <.idata$6+0xe>
   14000849e:	61                   	(bad)
   14000849f:	73 74                	jae    140008515 <.idata$6+0x5>
   1400084a1:	45 72 72             	rex.RB jb 140008516 <.idata$6+0x6>
   1400084a4:	6f                   	outsl  %ds:(%rsi),(%dx)
   1400084a5:	72 00                	jb     1400084a7 <.idata$6+0xf>
	...

00000001400084a8 <.idata$6>:
   1400084a8:	92                   	xchg   %eax,%edx
   1400084a9:	03 49 6e             	add    0x6e(%rcx),%ecx
   1400084ac:	69 74 69 61 6c 69 7a 	imul   $0x657a696c,0x61(%rcx,%rbp,2),%esi
   1400084b3:	65 
   1400084b4:	43 72 69             	rex.XB jb 140008520 <.idata$6+0x10>
   1400084b7:	74 69                	je     140008522 <.idata$6>
   1400084b9:	63 61 6c             	movsxd 0x6c(%rcx),%esp
   1400084bc:	53                   	push   %rbx
   1400084bd:	65 63 74 69 6f       	movsxd %gs:0x6f(%rcx,%rbp,2),%esi
   1400084c2:	6e                   	outsb  %ds:(%rsi),(%dx)
	...

00000001400084c4 <.idata$6>:
   1400084c4:	f0 03 4c 65 61       	lock add 0x61(%rbp,%riz,2),%ecx
   1400084c9:	76 65                	jbe    140008530 <.idata$6+0xe>
   1400084cb:	43 72 69             	rex.XB jb 140008537 <.idata$6+0x5>
   1400084ce:	74 69                	je     140008539 <.idata$6+0x7>
   1400084d0:	63 61 6c             	movsxd 0x6c(%rcx),%esp
   1400084d3:	53                   	push   %rbx
   1400084d4:	65 63 74 69 6f       	movsxd %gs:0x6f(%rcx,%rbp,2),%esi
   1400084d9:	6e                   	outsb  %ds:(%rsi),(%dx)
	...

00000001400084dc <.idata$6>:
   1400084dc:	94                   	xchg   %eax,%esp
   1400084dd:	05 53 65 74 55       	add    $0x55746553,%eax
   1400084e2:	6e                   	outsb  %ds:(%rsi),(%dx)
   1400084e3:	68 61 6e 64 6c       	push   $0x6c646e61
   1400084e8:	65 64 45 78 63       	gs fs rex.RB js 140008550 <.idata$6+0xe>
   1400084ed:	65 70 74             	gs jo  140008564 <.idata$6+0x2>
   1400084f0:	69 6f 6e 46 69 6c 74 	imul   $0x746c6946,0x6e(%rdi),%ebp
   1400084f7:	65 72 00             	gs jb  1400084fa <.idata$6>

00000001400084fa <.idata$6>:
   1400084fa:	a4                   	movsb  %ds:(%rsi),%es:(%rdi)
   1400084fb:	05 53 6c 65 65       	add    $0x65656c53,%eax
   140008500:	70 00                	jo     140008502 <.idata$6>

0000000140008502 <.idata$6>:
   140008502:	c8 05 54 6c          	enter  $0x5405,$0x6c
   140008506:	73 47                	jae    14000854f <.idata$6+0xd>
   140008508:	65 74 56             	gs je  140008561 <.idata$6+0xf>
   14000850b:	61                   	(bad)
   14000850c:	6c                   	insb   (%dx),%es:(%rdi)
   14000850d:	75 65                	jne    140008574 <.idata$6>
	...

0000000140008510 <.idata$6>:
   140008510:	f7 05 56 69 72 74 75 	testl  $0x506c6175,0x74726956(%rip)        # 1b472ee70 <.debug_rnglists+0x7470bda6>
   140008517:	61 6c 50 
   14000851a:	72 6f                	jb     14000858b <.idata$6+0xd>
   14000851c:	74 65                	je     140008583 <.idata$6+0x5>
   14000851e:	63 74 00 00          	movsxd 0x0(%rax,%rax,1),%esi

0000000140008522 <.idata$6>:
   140008522:	f9                   	stc
   140008523:	05 56 69 72 74       	add    $0x74726956,%eax
   140008528:	75 61                	jne    14000858b <.idata$6+0xd>
   14000852a:	6c                   	insb   (%dx),%es:(%rdi)
   14000852b:	51                   	push   %rcx
   14000852c:	75 65                	jne    140008593 <.idata$6+0x1>
   14000852e:	72 79                	jb     1400085a9 <.idata$6+0x17>
	...

0000000140008532 <.idata$6>:
   140008532:	01 00                	add    %eax,(%rax)
   140008534:	5f                   	pop    %rdi
   140008535:	5f                   	pop    %rdi
   140008536:	70 5f                	jo     140008597 <.idata$6+0x5>
   140008538:	5f                   	pop    %rdi
   140008539:	65 6e                	outsb  %gs:(%rsi),(%dx)
   14000853b:	76 69                	jbe    1400085a6 <.idata$6+0x14>
   14000853d:	72 6f                	jb     1400085ae <.idata$6+0x4>
   14000853f:	6e                   	outsb  %ds:(%rsi),(%dx)
	...

0000000140008542 <.idata$6>:
   140008542:	02 00                	add    (%rax),%al
   140008544:	5f                   	pop    %rdi
   140008545:	5f                   	pop    %rdi
   140008546:	70 5f                	jo     1400085a7 <.idata$6+0x15>
   140008548:	5f                   	pop    %rdi
   140008549:	77 65                	ja     1400085b0 <.idata$6+0x6>
   14000854b:	6e                   	outsb  %ds:(%rsi),(%dx)
   14000854c:	76 69                	jbe    1400085b7 <.idata$6+0x3>
   14000854e:	72 6f                	jb     1400085bf <.idata$6+0xb>
   140008550:	6e                   	outsb  %ds:(%rsi),(%dx)
	...

0000000140008552 <.idata$6>:
   140008552:	18 00                	sbb    %al,(%rax)
   140008554:	5f                   	pop    %rdi
   140008555:	73 65                	jae    1400085bc <.idata$6+0x8>
   140008557:	74 5f                	je     1400085b8 <.idata$6+0x4>
   140008559:	6e                   	outsb  %ds:(%rsi),(%dx)
   14000855a:	65 77 5f             	gs ja  1400085bc <.idata$6+0x8>
   14000855d:	6d                   	insl   (%dx),%es:(%rdi)
   14000855e:	6f                   	outsl  %ds:(%rsi),(%dx)
   14000855f:	64 65 00           	fs add %bl,%gs:(%rcx)

0000000140008562 <.idata$6>:
   140008562:	19 00                	sbb    %eax,(%rax)
   140008564:	63 61 6c             	movsxd 0x6c(%rcx),%esp
   140008567:	6c                   	insb   (%dx),%es:(%rdi)
   140008568:	6f                   	outsl  %ds:(%rsi),(%dx)
   140008569:	63 00                	movsxd (%rax),%eax
	...

000000014000856c <.idata$6>:
   14000856c:	1a 00                	sbb    (%rax),%al
   14000856e:	66 72 65             	data16 jb 1400085d6 <.idata$6+0x6>
   140008571:	65 00 00             	add    %al,%gs:(%rax)

0000000140008574 <.idata$6>:
   140008574:	1b 00                	sbb    (%rax),%eax
   140008576:	6d                   	insl   (%dx),%es:(%rdi)
   140008577:	61                   	(bad)
   140008578:	6c                   	insb   (%dx),%es:(%rdi)
   140008579:	6c                   	insb   (%dx),%es:(%rdi)
   14000857a:	6f                   	outsl  %ds:(%rsi),(%dx)
   14000857b:	63 00                	movsxd (%rax),%eax
	...

000000014000857e <.idata$6>:
   14000857e:	0a 00                	or     (%rax),%al
   140008580:	5f                   	pop    %rdi
   140008581:	5f                   	pop    %rdi
   140008582:	73 65                	jae    1400085e9 <.idata$6+0x1>
   140008584:	74 75                	je     1400085fb <.idata$6+0x13>
   140008586:	73 65                	jae    1400085ed <.idata$6+0x5>
   140008588:	72 6d                	jb     1400085f7 <.idata$6+0xf>
   14000858a:	61                   	(bad)
   14000858b:	74 68                	je     1400085f5 <.idata$6+0xd>
   14000858d:	65 72 72             	gs jb  140008602 <.idata$6>
	...

0000000140008592 <.idata$6>:
   140008592:	10 00                	adc    %al,(%rax)
   140008594:	5f                   	pop    %rdi
   140008595:	5f                   	pop    %rdi
   140008596:	43 5f                	rex.XB pop %r15
   140008598:	73 70                	jae    14000860a <.idata$6+0x8>
   14000859a:	65 63 69 66          	movsxd %gs:0x66(%rcx),%ebp
   14000859e:	69 63 5f 68 61 6e 64 	imul   $0x646e6168,0x5f(%rbx),%esp
   1400085a5:	6c                   	insb   (%dx),%es:(%rdi)
   1400085a6:	65 72 00             	gs jb  1400085a9 <.idata$6+0x17>
	...

00000001400085aa <.idata$6>:
   1400085aa:	78 04                	js     1400085b0 <.idata$6+0x6>
   1400085ac:	6d                   	insl   (%dx),%es:(%rdi)
   1400085ad:	65 6d                	gs insl (%dx),%es:(%rdi)
   1400085af:	63 70 79             	movsxd 0x79(%rax),%esi
	...

00000001400085b4 <.idata$6>:
   1400085b4:	05 00 5f 5f 70       	add    $0x705f5f00,%eax
   1400085b9:	5f                   	pop    %rdi
   1400085ba:	5f                   	pop    %rdi
   1400085bb:	5f                   	pop    %rdi
   1400085bc:	61                   	(bad)
   1400085bd:	72 67                	jb     140008626 <.idata$6+0xc>
   1400085bf:	63 00                	movsxd (%rax),%eax
	...

00000001400085c2 <.idata$6>:
   1400085c2:	06                   	(bad)
   1400085c3:	00 5f 5f             	add    %bl,0x5f(%rdi)
   1400085c6:	70 5f                	jo     140008627 <.idata$6+0xd>
   1400085c8:	5f                   	pop    %rdi
   1400085c9:	5f                   	pop    %rdi
   1400085ca:	61                   	(bad)
   1400085cb:	72 67                	jb     140008634 <.idata$6+0x4>
   1400085cd:	76 00                	jbe    1400085cf <.idata$6+0xd>
	...

00000001400085d0 <.idata$6>:
   1400085d0:	07                   	(bad)
   1400085d1:	00 5f 5f             	add    %bl,0x5f(%rdi)
   1400085d4:	70 5f                	jo     140008635 <.idata$6+0x5>
   1400085d6:	5f                   	pop    %rdi
   1400085d7:	5f                   	pop    %rdi
   1400085d8:	77 61                	ja     14000863b <.idata$6+0xb>
   1400085da:	72 67                	jb     140008643 <.idata$6+0x5>
   1400085dc:	76 00                	jbe    1400085de <.idata$6>

00000001400085de <.idata$6>:
   1400085de:	17                   	(bad)
   1400085df:	00 5f 63             	add    %bl,0x63(%rdi)
   1400085e2:	65 78 69             	gs js  14000864e <.idata$6+0x8>
   1400085e5:	74 00                	je     1400085e7 <.idata$6+0x9>
	...

00000001400085e8 <.idata$6>:
   1400085e8:	19 00                	sbb    %eax,(%rax)
   1400085ea:	5f                   	pop    %rdi
   1400085eb:	63 6f 6e             	movsxd 0x6e(%rdi),%ebp
   1400085ee:	66 69 67 75 72 65    	imul   $0x6572,0x75(%rdi),%sp
   1400085f4:	5f                   	pop    %rdi
   1400085f5:	6e                   	outsb  %ds:(%rsi),(%dx)
   1400085f6:	61                   	(bad)
   1400085f7:	72 72                	jb     14000866b <.idata$6+0x3>
   1400085f9:	6f                   	outsl  %ds:(%rsi),(%dx)
   1400085fa:	77 5f                	ja     14000865b <.idata$6+0x15>
   1400085fc:	61                   	(bad)
   1400085fd:	72 67                	jb     140008666 <.idata$6+0x20>
   1400085ff:	76 00                	jbe    140008601 <.idata$6+0x19>
	...

0000000140008602 <.idata$6>:
   140008602:	1a 00                	sbb    (%rax),%al
   140008604:	5f                   	pop    %rdi
   140008605:	63 6f 6e             	movsxd 0x6e(%rdi),%ebp
   140008608:	66 69 67 75 72 65    	imul   $0x6572,0x75(%rdi),%sp
   14000860e:	5f                   	pop    %rdi
   14000860f:	77 69                	ja     14000867a <.idata$6+0x12>
   140008611:	64 65 5f             	fs gs pop %rdi
   140008614:	61                   	(bad)
   140008615:	72 67                	jb     14000867e <.idata$6+0x16>
   140008617:	76 00                	jbe    140008619 <.idata$6+0x17>
	...

000000014000861a <.idata$6>:
   14000861a:	1e                   	(bad)
   14000861b:	00 5f 63             	add    %bl,0x63(%rdi)
   14000861e:	72 74                	jb     140008694 <.idata$6>
   140008620:	5f                   	pop    %rdi
   140008621:	61                   	(bad)
   140008622:	74 5f                	je     140008683 <.idata$6+0x1b>
   140008624:	71 75                	jno    14000869b <.idata$6+0x7>
   140008626:	69 63 6b 5f 65 78 69 	imul   $0x6978655f,0x6b(%rbx),%esp
   14000862d:	74 00                	je     14000862f <.idata$6+0x15>
	...

0000000140008630 <.idata$6>:
   140008630:	1f                   	(bad)
   140008631:	00 5f 63             	add    %bl,0x63(%rdi)
   140008634:	72 74                	jb     1400086aa <.idata$6+0x6>
   140008636:	5f                   	pop    %rdi
   140008637:	61                   	(bad)
   140008638:	74 65                	je     14000869f <.idata$6+0xb>
   14000863a:	78 69                	js     1400086a5 <.idata$6+0x1>
   14000863c:	74 00                	je     14000863e <.idata$6>

000000014000863e <.idata$6>:
   14000863e:	25 00 5f 65 78       	and    $0x78655f00,%eax
   140008643:	69 74 00     	imul   $0x6e695f00,0x36(%rax,%rax,1),%esi
   14000864a:	 

0000000140008646 <.idata$6>:
   140008646:	36 00 5f 69          	ss add %bl,0x69(%rdi)
   14000864a:	6e                   	outsb  %ds:(%rsi),(%dx)
   14000864b:	69 74 69 61 6c 69 7a 	imul   $0x657a696c,0x61(%rcx,%rbp,2),%esi
   140008652:	65 
   140008653:	5f                   	pop    %rdi
   140008654:	6e                   	outsb  %ds:(%rsi),(%dx)
   140008655:	61                   	(bad)
   140008656:	72 72                	jb     1400086ca <.idata$6+0x4>
   140008658:	6f                   	outsl  %ds:(%rsi),(%dx)
   140008659:	77 5f                	ja     1400086ba <.idata$6+0x16>
   14000865b:	65 6e                	outsb  %gs:(%rsi),(%dx)
   14000865d:	76 69                	jbe    1400086c8 <.idata$6+0x2>
   14000865f:	72 6f                	jb     1400086d0 <.idata$6+0x2>
   140008661:	6e                   	outsb  %ds:(%rsi),(%dx)
   140008662:	6d                   	insl   (%dx),%es:(%rdi)
   140008663:	65 6e                	outsb  %gs:(%rsi),(%dx)
   140008665:	74 00                	je     140008667 <.idata$6+0x21>
	...

0000000140008668 <.idata$6>:
   140008668:	38 00                	cmp    %al,(%rax)
   14000866a:	5f                   	pop    %rdi
   14000866b:	69 6e 69 74 69 61 6c 	imul   $0x6c616974,0x69(%rsi),%ebp
   140008672:	69 7a 65 5f 77 69 64 	imul   $0x6469775f,0x65(%rdx),%edi
   140008679:	65 5f                	gs pop %rdi
   14000867b:	65 6e                	outsb  %gs:(%rsi),(%dx)
   14000867d:	76 69                	jbe    1400086e8 <.idata$6+0x8>
   14000867f:	72 6f                	jb     1400086f0 <.idata$6+0x10>
   140008681:	6e                   	outsb  %ds:(%rsi),(%dx)
   140008682:	6d                   	insl   (%dx),%es:(%rdi)
   140008683:	65 6e                	outsb  %gs:(%rsi),(%dx)
   140008685:	74 00                	je     140008687 <.idata$6+0x1f>
	...

0000000140008688 <.idata$6>:
   140008688:	39 00                	cmp    %eax,(%rax)
   14000868a:	5f                   	pop    %rdi
   14000868b:	69 6e 69 74 74 65 72 	imul   $0x72657474,0x69(%rsi),%ebp
   140008692:	6d                   	insl   (%dx),%es:(%rdi)
	...

0000000140008694 <.idata$6>:
   140008694:	45 00 5f 73          	add    %r11b,0x73(%r15)
   140008698:	65 74 5f             	gs je  1400086fa <.idata$6+0x8>
   14000869b:	61                   	(bad)
   14000869c:	70 70                	jo     14000870e <.idata$6+0xc>
   14000869e:	5f                   	pop    %rdi
   14000869f:	74 79                	je     14000871a <.idata$6+0xa>
   1400086a1:	70 65                	jo     140008708 <.idata$6+0x6>
	...

00000001400086a4 <.idata$6>:
   1400086a4:	4b 00 5f 73          	rex.WXB add %bl,0x73(%r15)
   1400086a8:	65 74 5f             	gs je  14000870a <.idata$6+0x8>
   1400086ab:	69 6e 76 61 6c 69 64 	imul   $0x64696c61,0x76(%rsi),%ebp
   1400086b2:	5f                   	pop    %rdi
   1400086b3:	70 61                	jo     140008716 <.idata$6+0x6>
   1400086b5:	72 61                	jb     140008718 <.idata$6+0x8>
   1400086b7:	6d                   	insl   (%dx),%es:(%rdi)
   1400086b8:	65 74 65             	gs je  140008720 <.idata$6+0x10>
   1400086bb:	72 5f                	jb     14000871c <.idata$6+0xc>
   1400086bd:	68 61 6e 64 6c       	push   $0x6c646e61
   1400086c2:	65 72 00             	gs jb  1400086c5 <.idata$6+0x21>
	...

00000001400086c6 <.idata$6>:
   1400086c6:	58                   	pop    %rax
   1400086c7:	00 61 62             	add    %ah,0x62(%rcx)
   1400086ca:	6f                   	outsl  %ds:(%rsi),(%dx)
   1400086cb:	72 74                	jb     140008741 <.idata$6+0x17>
	...

00000001400086ce <.idata$6>:
   1400086ce:	59                   	pop    %rcx
   1400086cf:	00 65 78             	add    %ah,0x78(%rbp)
   1400086d2:	69 74 00 00    	imul   $0x69730067,0x0(%rax,%rax,1),%esi
   1400086d9:	 

00000001400086d6 <.idata$6>:
   1400086d6:	67 00 73 69          	add    %dh,0x69(%ebx)
   1400086da:	67 6e                	outsb  %ds:(%esi),(%dx)
   1400086dc:	61                   	(bad)
   1400086dd:	6c                   	insb   (%dx),%es:(%rdi)
	...

00000001400086e0 <.idata$6>:
   1400086e0:	01 00                	add    %eax,(%rax)
   1400086e2:	5f                   	pop    %rdi
   1400086e3:	5f                   	pop    %rdi
   1400086e4:	61                   	(bad)
   1400086e5:	63 72 74             	movsxd 0x74(%rdx),%esi
   1400086e8:	5f                   	pop    %rdi
   1400086e9:	69 6f 62 5f 66 75 6e 	imul   $0x6e75665f,0x62(%rdi),%ebp
   1400086f0:	63 00                	movsxd (%rax),%eax

00000001400086f2 <.idata$6>:
   1400086f2:	02 00                	add    (%rax),%al
   1400086f4:	5f                   	pop    %rdi
   1400086f5:	5f                   	pop    %rdi
   1400086f6:	70 5f                	jo     140008757 <.idata$6+0x7>
   1400086f8:	5f                   	pop    %rdi
   1400086f9:	63 6f 6d             	movsxd 0x6d(%rdi),%ebp
   1400086fc:	6d                   	insl   (%dx),%es:(%rdi)
   1400086fd:	6f                   	outsl  %ds:(%rsi),(%dx)
   1400086fe:	64 65 00 00          	fs add %al,%gs:(%rax)

0000000140008702 <.idata$6>:
   140008702:	03 00                	add    (%rax),%eax
   140008704:	5f                   	pop    %rdi
   140008705:	5f                   	pop    %rdi
   140008706:	70 5f                	jo     140008767 <.idata$6+0x5>
   140008708:	5f                   	pop    %rdi
   140008709:	66 6d                	insw   (%dx),%es:(%rdi)
   14000870b:	6f                   	outsl  %ds:(%rsi),(%dx)
   14000870c:	64 65 00 00          	fs add %al,%gs:(%rax)

0000000140008710 <.idata$6>:
   140008710:	04 00                	add    $0x0,%al
   140008712:	5f                   	pop    %rdi
   140008713:	5f                   	pop    %rdi
   140008714:	73 74                	jae    14000878a <.idata$6+0x2>
   140008716:	64 69 6f 5f 63 6f 6d 	imul   $0x6d6d6f63,%fs:0x5f(%rdi),%ebp
   14000871d:	6d 
   14000871e:	6f                   	outsl  %ds:(%rsi),(%dx)
   14000871f:	6e                   	outsb  %ds:(%rsi),(%dx)
   140008720:	5f                   	pop    %rdi
   140008721:	76 66                	jbe    140008789 <.idata$6+0x1>
   140008723:	70 72                	jo     140008797 <.idata$6+0x3>
   140008725:	69 6e 74 66 00   	imul   $0x80066,0x74(%rsi),%ebp

000000014000872a <.idata$6>:
   14000872a:	08 00                	or     %al,(%rax)
   14000872c:	5f                   	pop    %rdi
   14000872d:	5f                   	pop    %rdi
   14000872e:	73 74                	jae    1400087a4 <.idata$7>
   140008730:	64 69 6f 5f 63 6f 6d 	imul   $0x6d6d6f63,%fs:0x5f(%rdi),%ebp
   140008737:	6d 
